# SymbolsHelper-Confirmed: 1.0.1 amd64
libModemManagerQt.so.1 libmodemmanagerqt1 #MINVER#
 (optional=templinst)_Z19qDBusMarshallHelperI12ValidityPairEvR13QDBusArgumentPKT_@Base 1.0.1
 (optional=templinst)_Z19qDBusMarshallHelperI16CurrentModesTypeEvR13QDBusArgumentPKT_@Base 1.0.1
 (optional=templinst)_Z19qDBusMarshallHelperI17SignalQualityPairEvR13QDBusArgumentPKT_@Base 1.0.1
 (optional=templinst)_Z19qDBusMarshallHelperI4QMapI15QDBusObjectPathS0_I7QStringS0_IS2_8QVariantEEEEvR13QDBusArgumentPKT_@Base 1.0.1
 (optional=templinst)_Z19qDBusMarshallHelperI4QMapI7QStringS0_IS1_8QVariantEEEvR13QDBusArgumentPKT_@Base 1.0.1
 (optional=templinst)_Z19qDBusMarshallHelperI4QMapIjjEEvR13QDBusArgumentPKT_@Base 1.0.1
 (optional=templinst)_Z19qDBusMarshallHelperI5QListI15QDBusObjectPathEEvR13QDBusArgumentPKT_@Base 1.0.1
 (optional=templinst)_Z19qDBusMarshallHelperI5QListI16CurrentModesTypeEEvR13QDBusArgumentPKT_@Base 1.0.1
 (optional=templinst)_Z19qDBusMarshallHelperI5QListI4QMapI7QString8QVariantEEEvR13QDBusArgumentPKT_@Base 1.0.1
 (optional=templinst)_Z19qDBusMarshallHelperI5QListIjEEvR13QDBusArgumentPKT_@Base 1.0.1
 (optional=templinst)_Z21qDBusDemarshallHelperI12ValidityPairEvRK13QDBusArgumentPT_@Base 1.0.1
 (optional=templinst)_Z21qDBusDemarshallHelperI16CurrentModesTypeEvRK13QDBusArgumentPT_@Base 1.0.1
 (optional=templinst)_Z21qDBusDemarshallHelperI17SignalQualityPairEvRK13QDBusArgumentPT_@Base 1.0.1
 (optional=templinst)_Z21qDBusDemarshallHelperI4QMapI15QDBusObjectPathS0_I7QStringS0_IS2_8QVariantEEEEvRK13QDBusArgumentPT_@Base 1.0.1
 (optional=templinst)_Z21qDBusDemarshallHelperI4QMapI7QStringS0_IS1_8QVariantEEEvRK13QDBusArgumentPT_@Base 1.0.1
 (optional=templinst)_Z21qDBusDemarshallHelperI4QMapIjjEEvRK13QDBusArgumentPT_@Base 1.0.1
 (optional=templinst)_Z21qDBusDemarshallHelperI5QListI15QDBusObjectPathEEvRK13QDBusArgumentPT_@Base 1.0.1
 (optional=templinst)_Z21qDBusDemarshallHelperI5QListI16CurrentModesTypeEEvRK13QDBusArgumentPT_@Base 1.0.1
 (optional=templinst)_Z21qDBusDemarshallHelperI5QListI4QMapI7QString8QVariantEEEvRK13QDBusArgumentPT_@Base 1.0.1
 (optional=templinst)_Z21qDBusDemarshallHelperI5QListIjEEvRK13QDBusArgumentPT_@Base 1.0.1
 (optional=templinst)_Z21qMetaTypeDeleteHelperI11MMModemLockEvPT_@Base 1.0.1
 (optional=templinst)_Z21qMetaTypeDeleteHelperI12QDBusVariantEvPT_@Base 1.0.1
 (optional=templinst)_Z21qMetaTypeDeleteHelperI12ValidityPairEvPT_@Base 1.0.1
 (optional=templinst)_Z21qMetaTypeDeleteHelperI13QDBusArgumentEvPT_@Base 1.0.1
 (optional=templinst)_Z21qMetaTypeDeleteHelperI15QDBusObjectPathEvPT_@Base 1.0.1
 (optional=templinst)_Z21qMetaTypeDeleteHelperI16CurrentModesTypeEvPT_@Base 1.0.1
 (optional=templinst)_Z21qMetaTypeDeleteHelperI17SignalQualityPairEvPT_@Base 1.0.1
 (optional=templinst)_Z21qMetaTypeDeleteHelperI4QMapI15QDBusObjectPathS0_I7QStringS0_IS2_8QVariantEEEEvPT_@Base 1.0.1
 (optional=templinst)_Z21qMetaTypeDeleteHelperI4QMapI21MMModemLocationSource8QVariantEEvPT_@Base 1.0.1
 (optional=templinst)_Z21qMetaTypeDeleteHelperI4QMapI7QStringS0_IS1_8QVariantEEEvPT_@Base 1.0.1
 (optional=templinst)_Z21qMetaTypeDeleteHelperI4QMapIjjEEvPT_@Base 1.0.1
 (optional=templinst)_Z21qMetaTypeDeleteHelperI5QListI15QDBusObjectPathEEvPT_@Base 1.0.1
 (optional=templinst)_Z21qMetaTypeDeleteHelperI5QListI16CurrentModesTypeEEvPT_@Base 1.0.1
 (optional=templinst)_Z21qMetaTypeDeleteHelperI5QListI4QMapI7QString8QVariantEEEvPT_@Base 1.0.1
 (optional=templinst)_Z21qMetaTypeDeleteHelperI5QListIjEEvPT_@Base 1.0.1
 (optional=templinst)_Z24qMetaTypeConstructHelperI11MMModemLockEPvPKT_@Base 1.0.1
 (optional=templinst)_Z24qMetaTypeConstructHelperI12QDBusVariantEPvPKT_@Base 1.0.1
 (optional=templinst)_Z24qMetaTypeConstructHelperI12ValidityPairEPvPKT_@Base 1.0.1
 (optional=templinst)_Z24qMetaTypeConstructHelperI13QDBusArgumentEPvPKT_@Base 1.0.1
 (optional=templinst)_Z24qMetaTypeConstructHelperI15QDBusObjectPathEPvPKT_@Base 1.0.1
 (optional=templinst)_Z24qMetaTypeConstructHelperI16CurrentModesTypeEPvPKT_@Base 1.0.1
 (optional=templinst)_Z24qMetaTypeConstructHelperI17SignalQualityPairEPvPKT_@Base 1.0.1
 (optional=templinst)_Z24qMetaTypeConstructHelperI4QMapI15QDBusObjectPathS0_I7QStringS0_IS2_8QVariantEEEEPvPKT_@Base 1.0.1
 (optional=templinst)_Z24qMetaTypeConstructHelperI4QMapI21MMModemLocationSource8QVariantEEPvPKT_@Base 1.0.1
 (optional=templinst)_Z24qMetaTypeConstructHelperI4QMapI7QStringS0_IS1_8QVariantEEEPvPKT_@Base 1.0.1
 (optional=templinst)_Z24qMetaTypeConstructHelperI4QMapIjjEEPvPKT_@Base 1.0.1
 (optional=templinst)_Z24qMetaTypeConstructHelperI5QListI15QDBusObjectPathEEPvPKT_@Base 1.0.1
 (optional=templinst)_Z24qMetaTypeConstructHelperI5QListI16CurrentModesTypeEEPvPKT_@Base 1.0.1
 (optional=templinst)_Z24qMetaTypeConstructHelperI5QListI4QMapI7QString8QVariantEEEPvPKT_@Base 1.0.1
 (optional=templinst)_Z24qMetaTypeConstructHelperI5QListIjEEPvPKT_@Base 1.0.1
 _Z25registerModemManagerTypesv@Base 1.0.1
 _ZN10QByteArrayD1Ev@Base 1.0.1
 _ZN10QByteArrayD2Ev@Base 1.0.1
 _ZN10QDBusErrorD1Ev@Base 1.0.1
 _ZN10QDBusErrorD2Ev@Base 1.0.1
 (optional=templinst)_ZN10QDBusReplyI11QStringListED1Ev@Base 1.0.1
 (optional=templinst)_ZN10QDBusReplyI11QStringListED2Ev@Base 1.0.1
 (optional=templinst)_ZN10QDBusReplyI15QDBusObjectPathED1Ev@Base 1.0.1
 (optional=templinst)_ZN10QDBusReplyI15QDBusObjectPathED2Ev@Base 1.0.1
 (optional=templinst)_ZN10QDBusReplyI4QMapI21MMModemLocationSource8QVariantEED1Ev@Base 1.0.1
 (optional=templinst)_ZN10QDBusReplyI4QMapI21MMModemLocationSource8QVariantEED2Ev@Base 1.0.1
 (optional=templinst)_ZN10QDBusReplyI5QListI15QDBusObjectPathEED1Ev@Base 1.0.1
 (optional=templinst)_ZN10QDBusReplyI5QListI15QDBusObjectPathEED2Ev@Base 1.0.1
 (optional=templinst)_ZN10QDBusReplyI7QStringED1Ev@Base 1.0.1
 (optional=templinst)_ZN10QDBusReplyI7QStringED2Ev@Base 1.0.1
 _ZN10SimPrivateC1ERK7QString@Base 1.0.1
 _ZN10SimPrivateC2ERK7QString@Base 1.0.1
 _ZN10SmsPrivateC1ERK7QString@Base 1.0.1
 _ZN10SmsPrivateC2ERK7QString@Base 1.0.1
 (optional=templinst)_ZN11QMetaTypeIdI12QDBusVariantE14qt_metatype_idEv@Base 1.0.1
 (optional=templinst)_ZN11QMetaTypeIdI12ValidityPairE14qt_metatype_idEv@Base 1.0.1
 (optional=templinst)_ZN11QMetaTypeIdI13QDBusArgumentE14qt_metatype_idEv@Base 1.0.1
 (optional=templinst)_ZN11QMetaTypeIdI15QDBusObjectPathE14qt_metatype_idEv@Base 1.0.1
 (optional=templinst)_ZN11QMetaTypeIdI16CurrentModesTypeE14qt_metatype_idEv@Base 1.0.1
 (optional=templinst)_ZN11QMetaTypeIdI17SignalQualityPairE14qt_metatype_idEv@Base 1.0.1
 (optional=templinst)_ZN11QMetaTypeIdI4QMapI15QDBusObjectPathS0_I7QStringS0_IS2_8QVariantEEEE14qt_metatype_idEv@Base 1.0.1
 (optional=templinst)_ZN11QMetaTypeIdI4QMapI21MMModemLocationSource8QVariantEE14qt_metatype_idEv@Base 1.0.1
 (optional=templinst)_ZN11QMetaTypeIdI4QMapI7QStringS0_IS1_8QVariantEEE14qt_metatype_idEv@Base 1.0.1
 (optional=templinst)_ZN11QMetaTypeIdI4QMapIjjEE14qt_metatype_idEv@Base 1.0.1
 (optional=templinst)_ZN11QMetaTypeIdI5QListI15QDBusObjectPathEE14qt_metatype_idEv@Base 1.0.1
 (optional=templinst)_ZN11QMetaTypeIdI5QListI16CurrentModesTypeEE14qt_metatype_idEv@Base 1.0.1
 (optional=templinst)_ZN11QMetaTypeIdI5QListI4QMapI7QString8QVariantEEE14qt_metatype_idEv@Base 1.0.1
 (optional=templinst)_ZN11QMetaTypeIdI5QListIjEE14qt_metatype_idEv@Base 1.0.1
 _ZN12ModemManager11ModemDevice10findBearerERK7QString@Base 1.0.1
 _ZN12ModemManager11ModemDevice10simRemovedERK7QString@Base 1.0.1
 _ZN12ModemManager11ModemDevice11bearerAddedERK7QString@Base 1.0.1
 _ZN12ModemManager11ModemDevice11qt_metacallEN11QMetaObject4CallEiPPv@Base 1.0.1
 _ZN12ModemManager11ModemDevice11qt_metacastEPKc@Base 1.0.1
 _ZN12ModemManager11ModemDevice13bearerRemovedERK7QString@Base 1.0.1
 _ZN12ModemManager11ModemDevice14modemInterfaceEv@Base 1.0.1
 _ZN12ModemManager11ModemDevice16onSimPathChangedERK7QStringS3_@Base 1.0.1
 _ZN12ModemManager11ModemDevice16staticMetaObjectE@Base 1.0.1
 _ZN12ModemManager11ModemDevice17onInterfacesAddedERK15QDBusObjectPathRK4QMapI7QStringS4_IS5_8QVariantEE@Base 1.0.1
 _ZN12ModemManager11ModemDevice18messagingInterfaceEv@Base 1.0.1
 _ZN12ModemManager11ModemDevice19onInterfacesRemovedERK15QDBusObjectPathRK11QStringList@Base 1.0.1
 _ZN12ModemManager11ModemDevice8simAddedERK7QString@Base 1.0.1
 _ZN12ModemManager11ModemDeviceC1ER18ModemDevicePrivateP7QObject@Base 1.0.1
 _ZN12ModemManager11ModemDeviceC1ERK7QStringP7QObject@Base 1.0.1
 _ZN12ModemManager11ModemDeviceC2ER18ModemDevicePrivateP7QObject@Base 1.0.1
 _ZN12ModemManager11ModemDeviceC2ERK7QStringP7QObject@Base 1.0.1
 _ZN12ModemManager11ModemDeviceD0Ev@Base 1.0.1
 _ZN12ModemManager11ModemDeviceD1Ev@Base 1.0.1
 _ZN12ModemManager11ModemDeviceD2Ev@Base 1.0.1
 _ZN12ModemManager11scanDevicesEv@Base 1.0.1
 _ZN12ModemManager12modemDevicesEv@Base 1.0.1
 _ZN12ModemManager13Modem3gppUssd11qt_metacallEN11QMetaObject4CallEiPPv@Base 1.0.1
 _ZN12ModemManager13Modem3gppUssd11qt_metacastEPKc@Base 1.0.1
 _ZN12ModemManager13Modem3gppUssd12stateChangedE27MMModem3gppUssdSessionState@Base 1.0.1
 _ZN12ModemManager13Modem3gppUssd16staticMetaObjectE@Base 1.0.1
 _ZN12ModemManager13Modem3gppUssd19onPropertiesChangedERK7QStringRK4QMapIS1_8QVariantERK11QStringList@Base 1.0.1
 _ZN12ModemManager13Modem3gppUssd21networkRequestChangedERK7QString@Base 1.0.1
 _ZN12ModemManager13Modem3gppUssd26networkNotificationChangedERK7QString@Base 1.0.1
 _ZN12ModemManager13Modem3gppUssd6cancelEv@Base 1.0.1
 _ZN12ModemManager13Modem3gppUssd7respondERK7QString@Base 1.0.1
 _ZN12ModemManager13Modem3gppUssd8initiateERK7QString@Base 1.0.1
 _ZN12ModemManager13Modem3gppUssdC1ERK7QStringP7QObject@Base 1.0.1
 _ZN12ModemManager13Modem3gppUssdC2ERK7QStringP7QObject@Base 1.0.1
 _ZN12ModemManager13Modem3gppUssdD0Ev@Base 1.0.1
 _ZN12ModemManager13Modem3gppUssdD1Ev@Base 1.0.1
 _ZN12ModemManager13Modem3gppUssdD2Ev@Base 1.0.1
 _ZN12ModemManager13ModemLocation11qt_metacallEN11QMetaObject4CallEiPPv@Base 1.0.1
 _ZN12ModemManager13ModemLocation11qt_metacastEPKc@Base 1.0.1
 _ZN12ModemManager13ModemLocation15locationChangedERK4QMapI21MMModemLocationSource8QVariantE@Base 1.0.1
 _ZN12ModemManager13ModemLocation16isEnabledChangedEb@Base 1.0.1
 _ZN12ModemManager13ModemLocation16staticMetaObjectE@Base 1.0.1
 _ZN12ModemManager13ModemLocation19capabilitiesChangedE6QFlagsI21MMModemLocationSourceE@Base 1.0.1
 _ZN12ModemManager13ModemLocation19onPropertiesChangedERK7QStringRK4QMapIS1_8QVariantERK11QStringList@Base 1.0.1
 _ZN12ModemManager13ModemLocation22signalsLocationChangedEb@Base 1.0.1
 _ZN12ModemManager13ModemLocation5setupE6QFlagsI21MMModemLocationSourceEb@Base 1.0.1
 _ZN12ModemManager13ModemLocation8locationEv@Base 1.0.1
 _ZN12ModemManager13ModemLocationC1ERK7QStringP7QObject@Base 1.0.1
 _ZN12ModemManager13ModemLocationC2ERK7QStringP7QObject@Base 1.0.1
 _ZN12ModemManager13ModemLocationD0Ev@Base 1.0.1
 _ZN12ModemManager13ModemLocationD1Ev@Base 1.0.1
 _ZN12ModemManager13ModemLocationD2Ev@Base 1.0.1
 _ZN12ModemManager14ModemMessaging11findMessageERK7QString@Base 1.0.1
 _ZN12ModemManager14ModemMessaging11qt_metacallEN11QMetaObject4CallEiPPv@Base 1.0.1
 _ZN12ModemManager14ModemMessaging11qt_metacastEPKc@Base 1.0.1
 _ZN12ModemManager14ModemMessaging12messageAddedERK7QStringb@Base 1.0.1
 _ZN12ModemManager14ModemMessaging13createMessageERK4QMapI7QString8QVariantE@Base 1.0.1
 _ZN12ModemManager14ModemMessaging13createMessageERKNS0_7MessageE@Base 1.0.1
 _ZN12ModemManager14ModemMessaging13deleteMessageERK7QString@Base 1.0.1
 _ZN12ModemManager14ModemMessaging14messageDeletedERK7QString@Base 1.0.1
 _ZN12ModemManager14ModemMessaging14onMessageAddedERK15QDBusObjectPathb@Base 1.0.1
 _ZN12ModemManager14ModemMessaging16onMessageDeletedERK15QDBusObjectPath@Base 1.0.1
 _ZN12ModemManager14ModemMessaging16staticMetaObjectE@Base 1.0.1
 _ZN12ModemManager14ModemMessaging19onPropertiesChangedERK7QStringRK4QMapIS1_8QVariantERK11QStringList@Base 1.0.1
 _ZN12ModemManager14ModemMessaging8messagesEv@Base 1.0.1
 _ZN12ModemManager14ModemMessagingC1ERK7QStringP7QObject@Base 1.0.1
 _ZN12ModemManager14ModemMessagingC2ERK7QStringP7QObject@Base 1.0.1
 _ZN12ModemManager14ModemMessagingD0Ev@Base 1.0.1
 _ZN12ModemManager14ModemMessagingD1Ev@Base 1.0.1
 _ZN12ModemManager14ModemMessagingD2Ev@Base 1.0.1
 _ZN12ModemManager15findModemDeviceERK7QString@Base 1.0.1
 _ZN12ModemManager19ModemManagerPrivate11qt_metacallEN11QMetaObject4CallEiPPv@Base 1.0.1
 _ZN12ModemManager19ModemManagerPrivate11qt_metacastEPKc@Base 1.0.1
 _ZN12ModemManager19ModemManagerPrivate11scanDevicesEv@Base 1.0.1
 _ZN12ModemManager19ModemManagerPrivate12modemDevicesEv@Base 1.0.1
 _ZN12ModemManager19ModemManagerPrivate15findModemDeviceERK7QString@Base 1.0.1
 _ZN12ModemManager19ModemManagerPrivate16daemonRegisteredEv@Base 1.0.1
 _ZN12ModemManager19ModemManagerPrivate16staticMetaObjectE@Base 1.0.1
 _ZN12ModemManager19ModemManagerPrivate17onInterfacesAddedERK15QDBusObjectPathRK4QMapI7QStringS4_IS5_8QVariantEE@Base 1.0.1
 _ZN12ModemManager19ModemManagerPrivate18daemonUnregisteredEv@Base 1.0.1
 _ZN12ModemManager19ModemManagerPrivate19onInterfacesRemovedERK15QDBusObjectPathRK11QStringList@Base 1.0.1
 _ZN12ModemManager19ModemManagerPrivate4initEv@Base 1.0.1
 _ZN12ModemManager19ModemManagerPrivateC1Ev@Base 1.0.1
 _ZN12ModemManager19ModemManagerPrivateC2Ev@Base 1.0.1
 _ZN12ModemManager19ModemManagerPrivateD0Ev@Base 1.0.1
 _ZN12ModemManager19ModemManagerPrivateD1Ev@Base 1.0.1
 _ZN12ModemManager19ModemManagerPrivateD2Ev@Base 1.0.1
 _ZN12ModemManager3Sim11qt_metacallEN11QMetaObject4CallEiPPv@Base 1.0.1
 _ZN12ModemManager3Sim11qt_metacastEPKc@Base 1.0.1
 _ZN12ModemManager3Sim16staticMetaObjectE@Base 1.0.1
 _ZN12ModemManager3Sim7sendPinERK7QString@Base 1.0.1
 _ZN12ModemManager3Sim7sendPukERK7QStringS3_@Base 1.0.1
 _ZN12ModemManager3Sim9changePinERK7QStringS3_@Base 1.0.1
 _ZN12ModemManager3Sim9enablePinERK7QStringb@Base 1.0.1
 _ZN12ModemManager3SimC1ERK7QStringP7QObject@Base 1.0.1
 _ZN12ModemManager3SimC2ERK7QStringP7QObject@Base 1.0.1
 _ZN12ModemManager3SimD0Ev@Base 1.0.1
 _ZN12ModemManager3SimD1Ev@Base 1.0.1
 _ZN12ModemManager3SimD2Ev@Base 1.0.1
 _ZN12ModemManager3Sms11qt_metacallEN11QMetaObject4CallEiPPv@Base 1.0.1
 _ZN12ModemManager3Sms11qt_metacastEPKc@Base 1.0.1
 _ZN12ModemManager3Sms12stateChangedE10MMSmsState@Base 1.0.1
 _ZN12ModemManager3Sms16staticMetaObjectE@Base 1.0.1
 _ZN12ModemManager3Sms19onPropertiesChangedERK7QStringRK4QMapIS1_8QVariantERK11QStringList@Base 1.0.1
 _ZN12ModemManager3Sms20deliveryStateChangedE18MMSmsDeliveryState@Base 1.0.1
 _ZN12ModemManager3Sms4sendEv@Base 1.0.1
 _ZN12ModemManager3Sms5storeE12MMSmsStorage@Base 1.0.1
 _ZN12ModemManager3SmsC1ERK7QStringP7QObject@Base 1.0.1
 _ZN12ModemManager3SmsC2ERK7QStringP7QObject@Base 1.0.1
 _ZN12ModemManager3SmsD0Ev@Base 1.0.1
 _ZN12ModemManager3SmsD1Ev@Base 1.0.1
 _ZN12ModemManager3SmsD2Ev@Base 1.0.1
 _ZN12ModemManager5Modem10setEnabledEb@Base 1.0.1
 _ZN12ModemManager5Modem11listBearersEv@Base 1.0.1
 _ZN12ModemManager5Modem11qt_metacallEN11QMetaObject4CallEiPPv@Base 1.0.1
 _ZN12ModemManager5Modem11qt_metacastEPKc@Base 1.0.1
 _ZN12ModemManager5Modem12connectModemERK4QMapI7QString8QVariantE@Base 1.0.1
 _ZN12ModemManager5Modem12createBearerERKNS0_12BearerStructE@Base 1.0.1
 _ZN12ModemManager5Modem12deleteBearerERK7QString@Base 1.0.1
 _ZN12ModemManager5Modem12factoryResetERK7QString@Base 1.0.1
 _ZN12ModemManager5Modem12stateChangedE12MMModemStateS1_24MMModemStateChangeReason@Base 1.0.1
 _ZN12ModemManager5Modem13deviceChangedERK7QString@Base 1.0.1
 _ZN12ModemManager5Modem13setPowerStateE17MMModemPowerState@Base 1.0.1
 _ZN12ModemManager5Modem14driversChangedERK11QStringList@Base 1.0.1
 _ZN12ModemManager5Modem14enabledChangedEb@Base 1.0.1
 _ZN12ModemManager5Modem14onStateChangedEiij@Base 1.0.1
 _ZN12ModemManager5Modem14simPathChangedERK7QStringS3_@Base 1.0.1
 _ZN12ModemManager5Modem15disconnectModemERK7QString@Base 1.0.1
 _ZN12ModemManager5Modem15setCurrentBandsERK5QListI11MMModemBandE@Base 1.0.1
 _ZN12ModemManager5Modem15setCurrentModesERK16CurrentModesType@Base 1.0.1
 _ZN12ModemManager5Modem16staticMetaObjectE@Base 1.0.1
 _ZN12ModemManager5Modem17powerStateChangedE17MMModemPowerState@Base 1.0.1
 _ZN12ModemManager5Modem19currentModesChangedEv@Base 1.0.1
 _ZN12ModemManager5Modem19disconnectAllModemsEv@Base 1.0.1
 _ZN12ModemManager5Modem19onPropertiesChangedERK7QStringRK4QMapIS1_8QVariantERK11QStringList@Base 1.0.1
 _ZN12ModemManager5Modem20signalQualityChangedEj@Base 1.0.1
 _ZN12ModemManager5Modem21unlockRequiredChangedE11MMModemLock@Base 1.0.1
 _ZN12ModemManager5Modem22setCurrentCapabilitiesE6QFlagsI17MMModemCapabilityE@Base 1.0.1
 _ZN12ModemManager5Modem23accessTechnologyChangedE6QFlagsI23MMModemAccessTechnologyE@Base 1.0.1
 _ZN12ModemManager5Modem5resetEv@Base 1.0.1
 _ZN12ModemManager5Modem6statusEv@Base 1.0.1
 _ZN12ModemManager5Modem7commandERK7QStringj@Base 1.0.1
 _ZN12ModemManager5ModemC1ERK7QStringP7QObject@Base 1.0.1
 _ZN12ModemManager5ModemC2ERK7QStringP7QObject@Base 1.0.1
 _ZN12ModemManager5ModemD0Ev@Base 1.0.1
 _ZN12ModemManager5ModemD1Ev@Base 1.0.1
 _ZN12ModemManager5ModemD2Ev@Base 1.0.1
 _ZN12ModemManager6Bearer11qt_metacallEN11QMetaObject4CallEiPPv@Base 1.0.1
 _ZN12ModemManager6Bearer11qt_metacastEPKc@Base 1.0.1
 _ZN12ModemManager6Bearer13connectBearerEv@Base 1.0.1
 _ZN12ModemManager6Bearer16connectedChangedEb@Base 1.0.1
 _ZN12ModemManager6Bearer16disconnectBearerEv@Base 1.0.1
 _ZN12ModemManager6Bearer16interfaceChangedERK7QString@Base 1.0.1
 _ZN12ModemManager6Bearer16ip4ConfigChangedEv@Base 1.0.1
 _ZN12ModemManager6Bearer16ip6ConfigChangedEv@Base 1.0.1
 _ZN12ModemManager6Bearer16staticMetaObjectE@Base 1.0.1
 _ZN12ModemManager6Bearer16suspendedChangedEb@Base 1.0.1
 _ZN12ModemManager6Bearer19onPropertiesChangedERK7QStringRK4QMapIS1_8QVariantERK11QStringList@Base 1.0.1
 _ZN12ModemManager6Bearer8IpConfigD1Ev@Base 1.0.1
 _ZN12ModemManager6Bearer8IpConfigD2Ev@Base 1.0.1
 _ZN12ModemManager6BearerC1ERK7QStringP7QObject@Base 1.0.1
 _ZN12ModemManager6BearerC2ERK7QStringP7QObject@Base 1.0.1
 _ZN12ModemManager6BearerD0Ev@Base 1.0.1
 _ZN12ModemManager6BearerD1Ev@Base 1.0.1
 _ZN12ModemManager6BearerD2Ev@Base 1.0.1
 _ZN12ModemManager8Notifier10modemAddedERK7QString@Base 1.0.1
 _ZN12ModemManager8Notifier11qt_metacallEN11QMetaObject4CallEiPPv@Base 1.0.1
 _ZN12ModemManager8Notifier11qt_metacastEPKc@Base 1.0.1
 _ZN12ModemManager8Notifier12modemRemovedERK7QString@Base 1.0.1
 _ZN12ModemManager8Notifier15serviceAppearedEv@Base 1.0.1
 _ZN12ModemManager8Notifier16staticMetaObjectE@Base 1.0.1
 _ZN12ModemManager8Notifier18serviceDisappearedEv@Base 1.0.1
 _ZN12ModemManager8NotifierD0Ev@Base 1.0.1
 _ZN12ModemManager8NotifierD1Ev@Base 1.0.1
 _ZN12ModemManager8NotifierD2Ev@Base 1.0.1
 _ZN12ModemManager8notifierEv@Base 1.0.1
 _ZN12ModemManager9Interface11qt_metacallEN11QMetaObject4CallEiPPv@Base 1.0.1
 _ZN12ModemManager9Interface11qt_metacastEPKc@Base 1.0.1
 _ZN12ModemManager9Interface16staticMetaObjectE@Base 1.0.1
 _ZN12ModemManager9InterfaceC1ER16InterfacePrivateP7QObject@Base 1.0.1
 _ZN12ModemManager9InterfaceC1ERK7QStringP7QObject@Base 1.0.1
 _ZN12ModemManager9InterfaceC2ER16InterfacePrivateP7QObject@Base 1.0.1
 _ZN12ModemManager9InterfaceC2ERK7QStringP7QObject@Base 1.0.1
 _ZN12ModemManager9InterfaceD0Ev@Base 1.0.1
 _ZN12ModemManager9InterfaceD1Ev@Base 1.0.1
 _ZN12ModemManager9InterfaceD2Ev@Base 1.0.1
 _ZN12ModemManager9Modem3gpp11qt_metacallEN11QMetaObject4CallEiPPv@Base 1.0.1
 _ZN12ModemManager9Modem3gpp11qt_metacastEPKc@Base 1.0.1
 _ZN12ModemManager9Modem3gpp16staticMetaObjectE@Base 1.0.1
 _ZN12ModemManager9Modem3gpp17registerToNetworkERK7QString@Base 1.0.1
 _ZN12ModemManager9Modem3gpp19onPropertiesChangedERK7QStringRK4QMapIS1_8QVariantERK11QStringList@Base 1.0.1
 _ZN12ModemManager9Modem3gpp24registrationStateChangedE28MMModem3gppRegistrationState@Base 1.0.1
 _ZN12ModemManager9Modem3gpp27enabledFacilityLocksChangedE6QFlagsI19MMModem3gppFacilityE@Base 1.0.1
 _ZN12ModemManager9Modem3gpp4scanEv@Base 1.0.1
 _ZN12ModemManager9Modem3gppC1ERK7QStringP7QObject@Base 1.0.1
 _ZN12ModemManager9Modem3gppC2ERK7QStringP7QObject@Base 1.0.1
 _ZN12ModemManager9Modem3gppD0Ev@Base 1.0.1
 _ZN12ModemManager9Modem3gppD1Ev@Base 1.0.1
 _ZN12ModemManager9Modem3gppD2Ev@Base 1.0.1
 _ZN12ModemManager9ModemCdma11qt_metacallEN11QMetaObject4CallEiPPv@Base 1.0.1
 _ZN12ModemManager9ModemCdma11qt_metacastEPKc@Base 1.0.1
 _ZN12ModemManager9ModemCdma14activateManualERK4QMapI7QString8QVariantE@Base 1.0.1
 _ZN12ModemManager9ModemCdma16staticMetaObjectE@Base 1.0.1
 _ZN12ModemManager9ModemCdma22activationStateChangedE26MMModemCdmaActivationState21MMCdmaActivationErrorRK4QMapI7QString8QVariantE@Base 1.0.1
 _ZN12ModemManager9ModemCdma24onActivationStateChangedEjjRK4QMapI7QString8QVariantE@Base 1.0.1
 _ZN12ModemManager9ModemCdma8activateERK7QString@Base 1.0.1
 _ZN12ModemManager9ModemCdmaC1ERK7QStringP7QObject@Base 1.0.1
 _ZN12ModemManager9ModemCdmaC2ERK7QStringP7QObject@Base 1.0.1
 _ZN12ModemManager9ModemCdmaD0Ev@Base 1.0.1
 _ZN12ModemManager9ModemCdmaD1Ev@Base 1.0.1
 _ZN12ModemManager9ModemCdmaD2Ev@Base 1.0.1
 _ZN12ModemManager9ModemTime11networkTimeEv@Base 1.0.1
 _ZN12ModemManager9ModemTime11qt_metacallEN11QMetaObject4CallEiPPv@Base 1.0.1
 _ZN12ModemManager9ModemTime11qt_metacastEPKc@Base 1.0.1
 _ZN12ModemManager9ModemTime16staticMetaObjectE@Base 1.0.1
 _ZN12ModemManager9ModemTime18networkTimeChangedERK9QDateTime@Base 1.0.1
 _ZN12ModemManager9ModemTime20onNetworkTimeChangedERK7QString@Base 1.0.1
 _ZN12ModemManager9ModemTimeC1ERK7QStringP7QObject@Base 1.0.1
 _ZN12ModemManager9ModemTimeC2ERK7QStringP7QObject@Base 1.0.1
 _ZN12ModemManager9ModemTimeD0Ev@Base 1.0.1
 _ZN12ModemManager9ModemTimeD1Ev@Base 1.0.1
 _ZN12ModemManager9ModemTimeD2Ev@Base 1.0.1
 _ZN12ModemPrivateC1ERK7QString@Base 1.0.1
 _ZN12ModemPrivateC2ERK7QString@Base 1.0.1
 _ZN12ModemPrivateD0Ev@Base 1.0.1
 _ZN12ModemPrivateD1Ev@Base 1.0.1
 _ZN12ModemPrivateD2Ev@Base 1.0.1
 _ZN13BearerPrivateC1ERK7QString@Base 1.0.1
 _ZN13BearerPrivateC2ERK7QString@Base 1.0.1
 (optional=templinst)_ZN15QtSharedPointer16ExternalRefCountIN12ModemManager11ModemDeviceEE5derefEPNS_20ExternalRefCountDataEPS2_@Base 1.0.1
 (optional=templinst)_ZN15QtSharedPointer16ExternalRefCountIN12ModemManager14ModemMessagingEE5derefEPNS_20ExternalRefCountDataEPS2_@Base 1.0.1
 (optional=templinst)_ZN15QtSharedPointer16ExternalRefCountIN12ModemManager3SimEE5derefEPNS_20ExternalRefCountDataEPS2_@Base 1.0.1
 (optional=templinst)_ZN15QtSharedPointer16ExternalRefCountIN12ModemManager3SmsEE5derefEPNS_20ExternalRefCountDataEPS2_@Base 1.0.1
 (optional=templinst)_ZN15QtSharedPointer16ExternalRefCountIN12ModemManager5ModemEE5derefEPNS_20ExternalRefCountDataEPS2_@Base 1.0.1
 (optional=templinst)_ZN15QtSharedPointer16ExternalRefCountIN12ModemManager6BearerEE5derefEPNS_20ExternalRefCountDataEPS2_@Base 1.0.1
 (optional=templinst)_ZN15QtSharedPointer16ExternalRefCountIN12ModemManager9InterfaceEE5derefEPNS_20ExternalRefCountDataEPS2_@Base 1.0.1
 _ZN15QtSharedPointer20ExternalRefCountData7destroyEv@Base 1.0.1
 _ZN15QtSharedPointer20ExternalRefCountDataD0Ev@Base 1.0.1
 _ZN15QtSharedPointer20ExternalRefCountDataD1Ev@Base 1.0.1
 _ZN15QtSharedPointer20ExternalRefCountDataD2Ev@Base 1.0.1
 _ZN15QtSharedPointer29ExternalRefCountWithDestroyFn7destroyEv@Base 1.0.1
 _ZN15QtSharedPointer29ExternalRefCountWithDestroyFnD0Ev@Base 1.0.1
 _ZN15QtSharedPointer29ExternalRefCountWithDestroyFnD1Ev@Base 1.0.1
 _ZN15QtSharedPointer29ExternalRefCountWithDestroyFnD2Ev@Base 1.0.1
 (optional=templinst)_ZN15QtSharedPointer33ExternalRefCountWithCustomDeleterIN12ModemManager11ModemDeviceEM7QObjectFvvEE7deleterEPNS_20ExternalRefCountDataE@Base 1.0.1
 (optional=templinst)_ZN15QtSharedPointer33ExternalRefCountWithCustomDeleterIN12ModemManager3SimEM7QObjectFvvEE7deleterEPNS_20ExternalRefCountDataE@Base 1.0.1
 (optional=templinst)_ZN15QtSharedPointer33ExternalRefCountWithCustomDeleterIN12ModemManager3SmsEM7QObjectFvvEE7deleterEPNS_20ExternalRefCountDataE@Base 1.0.1
 (optional=templinst)_ZN15QtSharedPointer33ExternalRefCountWithCustomDeleterIN12ModemManager6BearerEM7QObjectFvvEE7deleterEPNS_20ExternalRefCountDataE@Base 1.0.1
 (optional=templinst)_ZN15QtSharedPointer33ExternalRefCountWithCustomDeleterIN12ModemManager9InterfaceEM7QObjectFvvEE7deleterEPNS_20ExternalRefCountDataE@Base 1.0.1
 _ZN16InterfacePrivateC1ERK7QString@Base 1.0.1
 _ZN16InterfacePrivateC2ERK7QString@Base 1.0.1
 _ZN16InterfacePrivateD0Ev@Base 1.0.1
 _ZN16InterfacePrivateD1Ev@Base 1.0.1
 _ZN16InterfacePrivateD2Ev@Base 1.0.1
 _ZN16Modem3gppPrivateC1ERK7QString@Base 1.0.1
 _ZN16Modem3gppPrivateC2ERK7QString@Base 1.0.1
 _ZN16Modem3gppPrivateD0Ev@Base 1.0.1
 _ZN16Modem3gppPrivateD1Ev@Base 1.0.1
 _ZN16Modem3gppPrivateD2Ev@Base 1.0.1
 _ZN16ModemCdmaPrivateC1ERK7QString@Base 1.0.1
 _ZN16ModemCdmaPrivateC2ERK7QString@Base 1.0.1
 _ZN16ModemCdmaPrivateD0Ev@Base 1.0.1
 _ZN16ModemCdmaPrivateD1Ev@Base 1.0.1
 _ZN16ModemCdmaPrivateD2Ev@Base 1.0.1
 _ZN16ModemTimePrivateC1ERK7QString@Base 1.0.1
 _ZN16ModemTimePrivateC2ERK7QString@Base 1.0.1
 _ZN16ModemTimePrivateD0Ev@Base 1.0.1
 _ZN16ModemTimePrivateD1Ev@Base 1.0.1
 _ZN16ModemTimePrivateD2Ev@Base 1.0.1
 _ZN18ModemDevicePrivate10findBearerERK7QString@Base 1.0.1
 _ZN18ModemDevicePrivate10interfacesEv@Base 1.0.1
 _ZN18ModemDevicePrivate14initInterfacesEv@Base 1.0.1
 _ZN18ModemDevicePrivate15createInterfaceEN12ModemManager11ModemDevice13InterfaceTypeE@Base 1.0.1
 _ZN18ModemDevicePrivate3simEv@Base 1.0.1
 _ZN18ModemDevicePrivate4initEv@Base 1.0.1
 _ZN18ModemDevicePrivate7bearersEv@Base 1.0.1
 _ZN18ModemDevicePrivate9interfaceEN12ModemManager11ModemDevice13InterfaceTypeE@Base 1.0.1
 _ZN18ModemDevicePrivateC1ERK7QStringPN12ModemManager11ModemDeviceE@Base 1.0.1
 _ZN18ModemDevicePrivateC2ERK7QStringPN12ModemManager11ModemDeviceE@Base 1.0.1
 _ZN18ModemDevicePrivateD0Ev@Base 1.0.1
 _ZN18ModemDevicePrivateD1Ev@Base 1.0.1
 _ZN18ModemDevicePrivateD2Ev@Base 1.0.1
 _ZN20Modem3gppUssdPrivateC1ERK7QString@Base 1.0.1
 _ZN20Modem3gppUssdPrivateC2ERK7QString@Base 1.0.1
 _ZN20Modem3gppUssdPrivateD0Ev@Base 1.0.1
 _ZN20Modem3gppUssdPrivateD1Ev@Base 1.0.1
 _ZN20Modem3gppUssdPrivateD2Ev@Base 1.0.1
 _ZN20ModemLocationPrivateC1ERK7QString@Base 1.0.1
 _ZN20ModemLocationPrivateC2ERK7QString@Base 1.0.1
 _ZN20ModemLocationPrivateD0Ev@Base 1.0.1
 _ZN20ModemLocationPrivateD1Ev@Base 1.0.1
 _ZN20ModemLocationPrivateD2Ev@Base 1.0.1
 _ZN21MmCleanUpGlobalStaticD1Ev@Base 1.0.1
 _ZN21MmCleanUpGlobalStaticD2Ev@Base 1.0.1
 _ZN21ModemMessagingPrivate11findMessageERK7QString@Base 1.0.1
 _ZN21ModemMessagingPrivate8messagesEv@Base 1.0.1
 _ZN21ModemMessagingPrivateC1ERK7QString@Base 1.0.1
 _ZN21ModemMessagingPrivateC2ERK7QString@Base 1.0.1
 _ZN21ModemMessagingPrivateD0Ev@Base 1.0.1
 _ZN21ModemMessagingPrivateD1Ev@Base 1.0.1
 _ZN21ModemMessagingPrivateD2Ev@Base 1.0.1
 _ZN36OrgFreedesktopModemManager1Interface11qt_metacallEN11QMetaObject4CallEiPPv@Base 1.0.1
 _ZN36OrgFreedesktopModemManager1Interface11qt_metacastEPKc@Base 1.0.1
 _ZN36OrgFreedesktopModemManager1Interface16staticMetaObjectE@Base 1.0.1
 _ZN36OrgFreedesktopModemManager1InterfaceC1ERK7QStringS2_RK15QDBusConnectionP7QObject@Base 1.0.1
 _ZN36OrgFreedesktopModemManager1InterfaceC2ERK7QStringS2_RK15QDBusConnectionP7QObject@Base 1.0.1
 _ZN36OrgFreedesktopModemManager1InterfaceD0Ev@Base 1.0.1
 _ZN36OrgFreedesktopModemManager1InterfaceD1Ev@Base 1.0.1
 _ZN36OrgFreedesktopModemManager1InterfaceD2Ev@Base 1.0.1
 _ZN39OrgFreedesktopModemManager1SimInterface11qt_metacallEN11QMetaObject4CallEiPPv@Base 1.0.1
 _ZN39OrgFreedesktopModemManager1SimInterface11qt_metacastEPKc@Base 1.0.1
 _ZN39OrgFreedesktopModemManager1SimInterface16staticMetaObjectE@Base 1.0.1
 _ZN39OrgFreedesktopModemManager1SimInterfaceC1ERK7QStringS2_RK15QDBusConnectionP7QObject@Base 1.0.1
 _ZN39OrgFreedesktopModemManager1SimInterfaceC2ERK7QStringS2_RK15QDBusConnectionP7QObject@Base 1.0.1
 _ZN39OrgFreedesktopModemManager1SimInterfaceD0Ev@Base 1.0.1
 _ZN39OrgFreedesktopModemManager1SimInterfaceD1Ev@Base 1.0.1
 _ZN39OrgFreedesktopModemManager1SimInterfaceD2Ev@Base 1.0.1
 _ZN39OrgFreedesktopModemManager1SmsInterface11qt_metacallEN11QMetaObject4CallEiPPv@Base 1.0.1
 _ZN39OrgFreedesktopModemManager1SmsInterface11qt_metacastEPKc@Base 1.0.1
 _ZN39OrgFreedesktopModemManager1SmsInterface16staticMetaObjectE@Base 1.0.1
 _ZN39OrgFreedesktopModemManager1SmsInterfaceC1ERK7QStringS2_RK15QDBusConnectionP7QObject@Base 1.0.1
 _ZN39OrgFreedesktopModemManager1SmsInterfaceC2ERK7QStringS2_RK15QDBusConnectionP7QObject@Base 1.0.1
 _ZN39OrgFreedesktopModemManager1SmsInterfaceD0Ev@Base 1.0.1
 _ZN39OrgFreedesktopModemManager1SmsInterfaceD1Ev@Base 1.0.1
 _ZN39OrgFreedesktopModemManager1SmsInterfaceD2Ev@Base 1.0.1
 _ZN40OrgFreedesktopDBusObjectManagerInterface11qt_metacallEN11QMetaObject4CallEiPPv@Base 1.0.1
 _ZN40OrgFreedesktopDBusObjectManagerInterface11qt_metacastEPKc@Base 1.0.1
 _ZN40OrgFreedesktopDBusObjectManagerInterface15InterfacesAddedERK15QDBusObjectPathRK4QMapI7QStringS3_IS4_8QVariantEE@Base 1.0.1
 _ZN40OrgFreedesktopDBusObjectManagerInterface16staticMetaObjectE@Base 1.0.1
 _ZN40OrgFreedesktopDBusObjectManagerInterface17InterfacesRemovedERK15QDBusObjectPathRK11QStringList@Base 1.0.1
 _ZN40OrgFreedesktopDBusObjectManagerInterfaceC1ERK7QStringS2_RK15QDBusConnectionP7QObject@Base 1.0.1
 _ZN40OrgFreedesktopDBusObjectManagerInterfaceC2ERK7QStringS2_RK15QDBusConnectionP7QObject@Base 1.0.1
 _ZN40OrgFreedesktopDBusObjectManagerInterfaceD0Ev@Base 1.0.1
 _ZN40OrgFreedesktopDBusObjectManagerInterfaceD1Ev@Base 1.0.1
 _ZN40OrgFreedesktopDBusObjectManagerInterfaceD2Ev@Base 1.0.1
 _ZN41OrgFreedesktopModemManager1ModemInterface11qt_metacallEN11QMetaObject4CallEiPPv@Base 1.0.1
 _ZN41OrgFreedesktopModemManager1ModemInterface11qt_metacastEPKc@Base 1.0.1
 _ZN41OrgFreedesktopModemManager1ModemInterface12StateChangedEiij@Base 1.0.1
 _ZN41OrgFreedesktopModemManager1ModemInterface16staticMetaObjectE@Base 1.0.1
 _ZN41OrgFreedesktopModemManager1ModemInterfaceC1ERK7QStringS2_RK15QDBusConnectionP7QObject@Base 1.0.1
 _ZN41OrgFreedesktopModemManager1ModemInterfaceC2ERK7QStringS2_RK15QDBusConnectionP7QObject@Base 1.0.1
 _ZN41OrgFreedesktopModemManager1ModemInterfaceD0Ev@Base 1.0.1
 _ZN41OrgFreedesktopModemManager1ModemInterfaceD1Ev@Base 1.0.1
 _ZN41OrgFreedesktopModemManager1ModemInterfaceD2Ev@Base 1.0.1
 _ZN42OrgFreedesktopModemManager1BearerInterface11qt_metacallEN11QMetaObject4CallEiPPv@Base 1.0.1
 _ZN42OrgFreedesktopModemManager1BearerInterface11qt_metacastEPKc@Base 1.0.1
 _ZN42OrgFreedesktopModemManager1BearerInterface16staticMetaObjectE@Base 1.0.1
 _ZN42OrgFreedesktopModemManager1BearerInterfaceC1ERK7QStringS2_RK15QDBusConnectionP7QObject@Base 1.0.1
 _ZN42OrgFreedesktopModemManager1BearerInterfaceC2ERK7QStringS2_RK15QDBusConnectionP7QObject@Base 1.0.1
 _ZN42OrgFreedesktopModemManager1BearerInterfaceD0Ev@Base 1.0.1
 _ZN42OrgFreedesktopModemManager1BearerInterfaceD1Ev@Base 1.0.1
 _ZN42OrgFreedesktopModemManager1BearerInterfaceD2Ev@Base 1.0.1
 _ZN45OrgFreedesktopModemManager1ModemTimeInterface11qt_metacallEN11QMetaObject4CallEiPPv@Base 1.0.1
 _ZN45OrgFreedesktopModemManager1ModemTimeInterface11qt_metacastEPKc@Base 1.0.1
 _ZN45OrgFreedesktopModemManager1ModemTimeInterface16staticMetaObjectE@Base 1.0.1
 _ZN45OrgFreedesktopModemManager1ModemTimeInterface18NetworkTimeChangedERK7QString@Base 1.0.1
 _ZN45OrgFreedesktopModemManager1ModemTimeInterfaceC1ERK7QStringS2_RK15QDBusConnectionP7QObject@Base 1.0.1
 _ZN45OrgFreedesktopModemManager1ModemTimeInterfaceC2ERK7QStringS2_RK15QDBusConnectionP7QObject@Base 1.0.1
 _ZN45OrgFreedesktopModemManager1ModemTimeInterfaceD0Ev@Base 1.0.1
 _ZN45OrgFreedesktopModemManager1ModemTimeInterfaceD1Ev@Base 1.0.1
 _ZN45OrgFreedesktopModemManager1ModemTimeInterfaceD2Ev@Base 1.0.1
 _ZN47OrgFreedesktopModemManager1ModemSimpleInterface11qt_metacallEN11QMetaObject4CallEiPPv@Base 1.0.1
 _ZN47OrgFreedesktopModemManager1ModemSimpleInterface11qt_metacastEPKc@Base 1.0.1
 _ZN47OrgFreedesktopModemManager1ModemSimpleInterface16staticMetaObjectE@Base 1.0.1
 _ZN47OrgFreedesktopModemManager1ModemSimpleInterfaceC1ERK7QStringS2_RK15QDBusConnectionP7QObject@Base 1.0.1
 _ZN47OrgFreedesktopModemManager1ModemSimpleInterfaceC2ERK7QStringS2_RK15QDBusConnectionP7QObject@Base 1.0.1
 _ZN47OrgFreedesktopModemManager1ModemSimpleInterfaceD0Ev@Base 1.0.1
 _ZN47OrgFreedesktopModemManager1ModemSimpleInterfaceD1Ev@Base 1.0.1
 _ZN47OrgFreedesktopModemManager1ModemSimpleInterfaceD2Ev@Base 1.0.1
 _ZN49OrgFreedesktopModemManager1ModemLocationInterface11qt_metacallEN11QMetaObject4CallEiPPv@Base 1.0.1
 _ZN49OrgFreedesktopModemManager1ModemLocationInterface11qt_metacastEPKc@Base 1.0.1
 _ZN49OrgFreedesktopModemManager1ModemLocationInterface16staticMetaObjectE@Base 1.0.1
 _ZN49OrgFreedesktopModemManager1ModemLocationInterfaceC1ERK7QStringS2_RK15QDBusConnectionP7QObject@Base 1.0.1
 _ZN49OrgFreedesktopModemManager1ModemLocationInterfaceC2ERK7QStringS2_RK15QDBusConnectionP7QObject@Base 1.0.1
 _ZN49OrgFreedesktopModemManager1ModemLocationInterfaceD0Ev@Base 1.0.1
 _ZN49OrgFreedesktopModemManager1ModemLocationInterfaceD1Ev@Base 1.0.1
 _ZN49OrgFreedesktopModemManager1ModemLocationInterfaceD2Ev@Base 1.0.1
 (optional=templinst)_ZN4QMapI15QDBusObjectPathS_I7QStringS_IS1_8QVariantEEE13detach_helperEv@Base 1.0.1
 (optional=templinst)_ZN4QMapI15QDBusObjectPathS_I7QStringS_IS1_8QVariantEEED1Ev@Base 1.0.1
 (optional=templinst)_ZN4QMapI15QDBusObjectPathS_I7QStringS_IS1_8QVariantEEED2Ev@Base 1.0.1
 (optional=templinst)_ZN4QMapI21MMModemLocationSource8QVariantE13detach_helperEv@Base 1.0.1
 (optional=templinst)_ZN4QMapI21MMModemLocationSource8QVariantED1Ev@Base 1.0.1
 (optional=templinst)_ZN4QMapI21MMModemLocationSource8QVariantED2Ev@Base 1.0.1
 (optional=templinst)_ZN4QMapI7QString14QSharedPointerIN12ModemManager11ModemDeviceEEE13detach_helperEv@Base 1.0.1
 (optional=templinst)_ZN4QMapI7QString14QSharedPointerIN12ModemManager11ModemDeviceEEE6removeERKS0_@Base 1.0.1
 (optional=templinst)_ZN4QMapI7QString14QSharedPointerIN12ModemManager11ModemDeviceEEED1Ev@Base 1.0.1
 (optional=templinst)_ZN4QMapI7QString14QSharedPointerIN12ModemManager11ModemDeviceEEED2Ev@Base 1.0.1
 (optional=templinst)_ZN4QMapI7QString14QSharedPointerIN12ModemManager3SmsEEE13detach_helperEv@Base 1.0.1
 (optional=templinst)_ZN4QMapI7QString14QSharedPointerIN12ModemManager3SmsEEE6removeERKS0_@Base 1.0.1
 (optional=templinst)_ZN4QMapI7QString8QVariantE13detach_helperEv@Base 1.0.1
 (optional=templinst)_ZN4QMapI7QString8QVariantED1Ev@Base 1.0.1
 (optional=templinst)_ZN4QMapI7QString8QVariantED2Ev@Base 1.0.1
 (optional=templinst)_ZN4QMapI7QStringS_IS0_8QVariantEE13detach_helperEv@Base 1.0.1
 (optional=templinst)_ZN4QMapI7QStringS_IS0_8QVariantEED1Ev@Base 1.0.1
 (optional=templinst)_ZN4QMapI7QStringS_IS0_8QVariantEED2Ev@Base 1.0.1
 (optional=templinst)_ZN4QMapIN12ModemManager11ModemDevice13InterfaceTypeE14QSharedPointerINS0_9InterfaceEEE13detach_helperEv@Base 1.0.1
 (optional=templinst)_ZN4QMapIN12ModemManager11ModemDevice13InterfaceTypeE14QSharedPointerINS0_9InterfaceEEE6removeERKS2_@Base 1.0.1
 (optional=templinst)_ZN4QMapIN12ModemManager11ModemDevice13InterfaceTypeE14QSharedPointerINS0_9InterfaceEEED1Ev@Base 1.0.1
 (optional=templinst)_ZN4QMapIN12ModemManager11ModemDevice13InterfaceTypeE14QSharedPointerINS0_9InterfaceEEED2Ev@Base 1.0.1
 (optional=templinst)_ZN4QMapIjjE13detach_helperEv@Base 1.0.1
 (optional=templinst)_ZN4QMapIjjED1Ev@Base 1.0.1
 (optional=templinst)_ZN4QMapIjjED2Ev@Base 1.0.1
 _ZN50OrgFreedesktopModemManager1ModemMessagingInterface11qt_metacallEN11QMetaObject4CallEiPPv@Base 1.0.1
 _ZN50OrgFreedesktopModemManager1ModemMessagingInterface11qt_metacastEPKc@Base 1.0.1
 _ZN50OrgFreedesktopModemManager1ModemMessagingInterface16staticMetaObjectE@Base 1.0.1
 _ZN50OrgFreedesktopModemManager1ModemMessagingInterface5AddedERK15QDBusObjectPathb@Base 1.0.1
 _ZN50OrgFreedesktopModemManager1ModemMessagingInterface7DeletedERK15QDBusObjectPath@Base 1.0.1
 _ZN50OrgFreedesktopModemManager1ModemMessagingInterfaceC1ERK7QStringS2_RK15QDBusConnectionP7QObject@Base 1.0.1
 _ZN50OrgFreedesktopModemManager1ModemMessagingInterfaceC2ERK7QStringS2_RK15QDBusConnectionP7QObject@Base 1.0.1
 _ZN50OrgFreedesktopModemManager1ModemMessagingInterfaceD0Ev@Base 1.0.1
 _ZN50OrgFreedesktopModemManager1ModemMessagingInterfaceD1Ev@Base 1.0.1
 _ZN50OrgFreedesktopModemManager1ModemMessagingInterfaceD2Ev@Base 1.0.1
 _ZN50OrgFreedesktopModemManager1ModemModem3gppInterface11qt_metacallEN11QMetaObject4CallEiPPv@Base 1.0.1
 _ZN50OrgFreedesktopModemManager1ModemModem3gppInterface11qt_metacastEPKc@Base 1.0.1
 _ZN50OrgFreedesktopModemManager1ModemModem3gppInterface16staticMetaObjectE@Base 1.0.1
 _ZN50OrgFreedesktopModemManager1ModemModem3gppInterfaceC1ERK7QStringS2_RK15QDBusConnectionP7QObject@Base 1.0.1
 _ZN50OrgFreedesktopModemManager1ModemModem3gppInterfaceC2ERK7QStringS2_RK15QDBusConnectionP7QObject@Base 1.0.1
 _ZN50OrgFreedesktopModemManager1ModemModem3gppInterfaceD0Ev@Base 1.0.1
 _ZN50OrgFreedesktopModemManager1ModemModem3gppInterfaceD1Ev@Base 1.0.1
 _ZN50OrgFreedesktopModemManager1ModemModem3gppInterfaceD2Ev@Base 1.0.1
 _ZN50OrgFreedesktopModemManager1ModemModemCdmaInterface11qt_metacallEN11QMetaObject4CallEiPPv@Base 1.0.1
 _ZN50OrgFreedesktopModemManager1ModemModemCdmaInterface11qt_metacastEPKc@Base 1.0.1
 _ZN50OrgFreedesktopModemManager1ModemModemCdmaInterface16staticMetaObjectE@Base 1.0.1
 _ZN50OrgFreedesktopModemManager1ModemModemCdmaInterface22ActivationStateChangedEjjRK4QMapI7QString8QVariantE@Base 1.0.1
 _ZN50OrgFreedesktopModemManager1ModemModemCdmaInterfaceC1ERK7QStringS2_RK15QDBusConnectionP7QObject@Base 1.0.1
 _ZN50OrgFreedesktopModemManager1ModemModemCdmaInterfaceC2ERK7QStringS2_RK15QDBusConnectionP7QObject@Base 1.0.1
 _ZN50OrgFreedesktopModemManager1ModemModemCdmaInterfaceD0Ev@Base 1.0.1
 _ZN50OrgFreedesktopModemManager1ModemModemCdmaInterfaceD1Ev@Base 1.0.1
 _ZN50OrgFreedesktopModemManager1ModemModemCdmaInterfaceD2Ev@Base 1.0.1
 _ZN54OrgFreedesktopModemManager1ModemModem3gppUssdInterface11qt_metacallEN11QMetaObject4CallEiPPv@Base 1.0.1
 _ZN54OrgFreedesktopModemManager1ModemModem3gppUssdInterface11qt_metacastEPKc@Base 1.0.1
 _ZN54OrgFreedesktopModemManager1ModemModem3gppUssdInterface16staticMetaObjectE@Base 1.0.1
 _ZN54OrgFreedesktopModemManager1ModemModem3gppUssdInterfaceC1ERK7QStringS2_RK15QDBusConnectionP7QObject@Base 1.0.1
 _ZN54OrgFreedesktopModemManager1ModemModem3gppUssdInterfaceC2ERK7QStringS2_RK15QDBusConnectionP7QObject@Base 1.0.1
 _ZN54OrgFreedesktopModemManager1ModemModem3gppUssdInterfaceD0Ev@Base 1.0.1
 _ZN54OrgFreedesktopModemManager1ModemModem3gppUssdInterfaceD1Ev@Base 1.0.1
 _ZN54OrgFreedesktopModemManager1ModemModem3gppUssdInterfaceD2Ev@Base 1.0.1
 (optional=templinst)_ZN5QListI11MMModemBandE13detach_helperEi@Base 1.0.1
 (optional=templinst)_ZN5QListI11MMModemBandE18detach_helper_growEii@Base 1.0.1
 (optional=templinst)_ZN5QListI11MMModemBandE6appendERKS0_@Base 1.0.1
 (optional=templinst)_ZN5QListI11MMModemBandED1Ev@Base 1.0.1
 (optional=templinst)_ZN5QListI11MMModemBandED2Ev@Base 1.0.1
 (optional=templinst)_ZN5QListI12MMSmsStorageE13detach_helperEi@Base 1.0.1
 (optional=templinst)_ZN5QListI12MMSmsStorageE18detach_helper_growEii@Base 1.0.1
 (optional=templinst)_ZN5QListI12MMSmsStorageE6appendERKS0_@Base 1.0.1
 (optional=templinst)_ZN5QListI12MMSmsStorageED1Ev@Base 1.0.1
 (optional=templinst)_ZN5QListI12MMSmsStorageED2Ev@Base 1.0.1
 (optional=templinst)_ZN5QListI14QSharedPointerIN12ModemManager11ModemDeviceEEE18detach_helper_growEii@Base 1.0.1
 (optional=templinst)_ZN5QListI14QSharedPointerIN12ModemManager11ModemDeviceEEE6appendERKS3_@Base 1.0.1
 (optional=templinst)_ZN5QListI14QSharedPointerIN12ModemManager11ModemDeviceEEED1Ev@Base 1.0.1
 (optional=templinst)_ZN5QListI14QSharedPointerIN12ModemManager11ModemDeviceEEED2Ev@Base 1.0.1
 (optional=templinst)_ZN5QListI14QSharedPointerIN12ModemManager3SmsEEE18detach_helper_growEii@Base 1.0.1
 (optional=templinst)_ZN5QListI14QSharedPointerIN12ModemManager3SmsEEE6appendERKS3_@Base 1.0.1
 (optional=templinst)_ZN5QListI14QSharedPointerIN12ModemManager3SmsEEED1Ev@Base 1.0.1
 (optional=templinst)_ZN5QListI14QSharedPointerIN12ModemManager3SmsEEED2Ev@Base 1.0.1
 (optional=templinst)_ZN5QListI14QSharedPointerIN12ModemManager6BearerEEE13detach_helperEi@Base 1.0.1
 (optional=templinst)_ZN5QListI14QSharedPointerIN12ModemManager6BearerEEE18detach_helper_growEii@Base 1.0.1
 (optional=templinst)_ZN5QListI14QSharedPointerIN12ModemManager6BearerEEE6appendERKS3_@Base 1.0.1
 (optional=templinst)_ZN5QListI14QSharedPointerIN12ModemManager6BearerEEED1Ev@Base 1.0.1
 (optional=templinst)_ZN5QListI14QSharedPointerIN12ModemManager6BearerEEED2Ev@Base 1.0.1
 (optional=templinst)_ZN5QListI14QSharedPointerIN12ModemManager9InterfaceEEE18detach_helper_growEii@Base 1.0.1
 (optional=templinst)_ZN5QListI14QSharedPointerIN12ModemManager9InterfaceEEE6appendERKS3_@Base 1.0.1
 (optional=templinst)_ZN5QListI14QSharedPointerIN12ModemManager9InterfaceEEED1Ev@Base 1.0.1
 (optional=templinst)_ZN5QListI14QSharedPointerIN12ModemManager9InterfaceEEED2Ev@Base 1.0.1
 (optional=templinst)_ZN5QListI15QDBusObjectPathE13detach_helperEi@Base 1.0.1
 (optional=templinst)_ZN5QListI15QDBusObjectPathE18detach_helper_growEii@Base 1.0.1
 (optional=templinst)_ZN5QListI15QDBusObjectPathE5clearEv@Base 1.0.1
 (optional=templinst)_ZN5QListI15QDBusObjectPathE6appendERKS0_@Base 1.0.1
 (optional=templinst)_ZN5QListI15QDBusObjectPathED1Ev@Base 1.0.1
 (optional=templinst)_ZN5QListI15QDBusObjectPathED2Ev@Base 1.0.1
 (optional=templinst)_ZN5QListI16CurrentModesTypeE13detach_helperEi@Base 1.0.1
 (optional=templinst)_ZN5QListI16CurrentModesTypeE18detach_helper_growEii@Base 1.0.1
 (optional=templinst)_ZN5QListI16CurrentModesTypeE5clearEv@Base 1.0.1
 (optional=templinst)_ZN5QListI16CurrentModesTypeE6appendERKS0_@Base 1.0.1
 (optional=templinst)_ZN5QListI16CurrentModesTypeED1Ev@Base 1.0.1
 (optional=templinst)_ZN5QListI16CurrentModesTypeED2Ev@Base 1.0.1
 (optional=templinst)_ZN5QListI17MMModemCapabilityE18detach_helper_growEii@Base 1.0.1
 (optional=templinst)_ZN5QListI17MMModemCapabilityE6appendERKS0_@Base 1.0.1
 (optional=templinst)_ZN5QListI4QMapI7QString8QVariantEE13detach_helperEi@Base 1.0.1
 (optional=templinst)_ZN5QListI4QMapI7QString8QVariantEE18detach_helper_growEii@Base 1.0.1
 (optional=templinst)_ZN5QListI4QMapI7QString8QVariantEE5clearEv@Base 1.0.1
 (optional=templinst)_ZN5QListI4QMapI7QString8QVariantEED1Ev@Base 1.0.1
 (optional=templinst)_ZN5QListI4QMapI7QString8QVariantEED2Ev@Base 1.0.1
 (optional=templinst)_ZN5QListI4QMapI7QString8QVariantEEpLERKS4_@Base 1.0.1
 (optional=templinst)_ZN5QListI7QStringE13detach_helperEi@Base 1.0.1
 (optional=templinst)_ZN5QListI7QStringE18detach_helper_growEii@Base 1.0.1
 (optional=templinst)_ZN5QListI7QStringE6appendERKS0_@Base 1.0.1
 (optional=templinst)_ZN5QListI7QStringED1Ev@Base 1.0.1
 (optional=templinst)_ZN5QListI7QStringED2Ev@Base 1.0.1
 (optional=templinst)_ZN5QListI8QVariantE18detach_helper_growEii@Base 1.0.1
 (optional=templinst)_ZN5QListI8QVariantE6appendERKS0_@Base 1.0.1
 (optional=templinst)_ZN5QListI8QVariantED1Ev@Base 1.0.1
 (optional=templinst)_ZN5QListI8QVariantED2Ev@Base 1.0.1
 (optional=templinst)_ZN5QListIN12ModemManager11ModemDevice13InterfaceTypeEE13detach_helperEi@Base 1.0.1
 (optional=templinst)_ZN5QListIN12ModemManager11ModemDevice13InterfaceTypeEE18detach_helper_growEii@Base 1.0.1
 (optional=templinst)_ZN5QListIN12ModemManager11ModemDevice13InterfaceTypeEE6appendERKS2_@Base 1.0.1
 (optional=templinst)_ZN5QListIN12ModemManager11ModemDevice13InterfaceTypeEED1Ev@Base 1.0.1
 (optional=templinst)_ZN5QListIN12ModemManager11ModemDevice13InterfaceTypeEED2Ev@Base 1.0.1
 (optional=templinst)_ZN5QListIjE13detach_helperEi@Base 1.0.1
 (optional=templinst)_ZN5QListIjE18detach_helper_growEii@Base 1.0.1
 (optional=templinst)_ZN5QListIjE5clearEv@Base 1.0.1
 (optional=templinst)_ZN5QListIjE6appendERKj@Base 1.0.1
 (optional=templinst)_ZN5QListIjED1Ev@Base 1.0.1
 (optional=templinst)_ZN5QListIjED2Ev@Base 1.0.1
 _ZN6QDebugD1Ev@Base 1.0.1
 _ZN6QDebugD2Ev@Base 1.0.1
 _ZN7QStringD1Ev@Base 1.0.1
 _ZN7QStringD2Ev@Base 1.0.1
 _ZNK12ModemManager11ModemDevice10interfacesEv@Base 1.0.1
 _ZNK12ModemManager11ModemDevice10isGsmModemEv@Base 1.0.1
 _ZNK12ModemManager11ModemDevice10metaObjectEv@Base 1.0.1
 _ZNK12ModemManager11ModemDevice11isCdmaModemEv@Base 1.0.1
 _ZNK12ModemManager11ModemDevice12hasInterfaceENS0_13InterfaceTypeE@Base 1.0.1
 _ZNK12ModemManager11ModemDevice3simEv@Base 1.0.1
 _ZNK12ModemManager11ModemDevice3uniEv@Base 1.0.1
 _ZNK12ModemManager11ModemDevice7bearersEv@Base 1.0.1
 _ZNK12ModemManager11ModemDevice9interfaceENS0_13InterfaceTypeE@Base 1.0.1
 _ZNK12ModemManager13Modem3gppUssd10metaObjectEv@Base 1.0.1
 _ZNK12ModemManager13Modem3gppUssd14networkRequestEv@Base 1.0.1
 _ZNK12ModemManager13Modem3gppUssd19networkNotificationEv@Base 1.0.1
 _ZNK12ModemManager13Modem3gppUssd5stateEv@Base 1.0.1
 _ZNK12ModemManager13ModemLocation10metaObjectEv@Base 1.0.1
 _ZNK12ModemManager13ModemLocation12capabilitiesEv@Base 1.0.1
 _ZNK12ModemManager13ModemLocation15signalsLocationEv@Base 1.0.1
 _ZNK12ModemManager13ModemLocation19enabledCapabilitiesEv@Base 1.0.1
 _ZNK12ModemManager13ModemLocation9isEnabledEv@Base 1.0.1
 _ZNK12ModemManager14ModemMessaging10metaObjectEv@Base 1.0.1
 _ZNK12ModemManager14ModemMessaging14defaultStorageEv@Base 1.0.1
 _ZNK12ModemManager14ModemMessaging17supportedStoragesEv@Base 1.0.1
 _ZNK12ModemManager19ModemManagerPrivate10metaObjectEv@Base 1.0.1
 _ZNK12ModemManager3Sim10metaObjectEv@Base 1.0.1
 _ZNK12ModemManager3Sim12operatorNameEv@Base 1.0.1
 _ZNK12ModemManager3Sim13simIdentifierEv@Base 1.0.1
 _ZNK12ModemManager3Sim18operatorIdentifierEv@Base 1.0.1
 _ZNK12ModemManager3Sim3uniEv@Base 1.0.1
 _ZNK12ModemManager3Sim4imsiEv@Base 1.0.1
 _ZNK12ModemManager3Sms10metaObjectEv@Base 1.0.1
 _ZNK12ModemManager3Sms13deliveryStateEv@Base 1.0.1
 _ZNK12ModemManager3Sms16messageReferenceEv@Base 1.0.1
 _ZNK12ModemManager3Sms18dischargeTimestampEv@Base 1.0.1
 _ZNK12ModemManager3Sms21deliveryReportRequestEv@Base 1.0.1
 _ZNK12ModemManager3Sms4dataEv@Base 1.0.1
 _ZNK12ModemManager3Sms4smscEv@Base 1.0.1
 _ZNK12ModemManager3Sms4textEv@Base 1.0.1
 _ZNK12ModemManager3Sms5stateEv@Base 1.0.1
 _ZNK12ModemManager3Sms6numberEv@Base 1.0.1
 _ZNK12ModemManager3Sms7pduTypeEv@Base 1.0.1
 _ZNK12ModemManager3Sms7storageEv@Base 1.0.1
 _ZNK12ModemManager3Sms8smsClassEv@Base 1.0.1
 _ZNK12ModemManager3Sms8validityEv@Base 1.0.1
 _ZNK12ModemManager3Sms9timestampEv@Base 1.0.1
 _ZNK12ModemManager5Modem10maxBearersEv@Base 1.0.1
 _ZNK12ModemManager5Modem10metaObjectEv@Base 1.0.1
 _ZNK12ModemManager5Modem10ownNumbersEv@Base 1.0.1
 _ZNK12ModemManager5Modem10powerStateEv@Base 1.0.1
 _ZNK12ModemManager5Modem11primaryPortEv@Base 1.0.1
 _ZNK12ModemManager5Modem12currentBandsEv@Base 1.0.1
 _ZNK12ModemManager5Modem12currentModesEv@Base 1.0.1
 _ZNK12ModemManager5Modem12manufacturerEv@Base 1.0.1
 _ZNK12ModemManager5Modem13signalQualityEv@Base 1.0.1
 _ZNK12ModemManager5Modem13unlockRetriesEv@Base 1.0.1
 _ZNK12ModemManager5Modem14supportedBandsEv@Base 1.0.1
 _ZNK12ModemManager5Modem14supportedModesEv@Base 1.0.1
 _ZNK12ModemManager5Modem14unlockRequiredEv@Base 1.0.1
 _ZNK12ModemManager5Modem16deviceIdentifierEv@Base 1.0.1
 _ZNK12ModemManager5Modem16maxActiveBearersEv@Base 1.0.1
 _ZNK12ModemManager5Modem17stateFailedReasonEv@Base 1.0.1
 _ZNK12ModemManager5Modem18accessTechnologiesEv@Base 1.0.1
 _ZNK12ModemManager5Modem19currentCapabilitiesEv@Base 1.0.1
 _ZNK12ModemManager5Modem19equipmentIdentifierEv@Base 1.0.1
 _ZNK12ModemManager5Modem19supportedIpFamiliesEv@Base 1.0.1
 _ZNK12ModemManager5Modem21supportedCapabilitiesEv@Base 1.0.1
 _ZNK12ModemManager5Modem3uniEv@Base 1.0.1
 _ZNK12ModemManager5Modem5modelEv@Base 1.0.1
 _ZNK12ModemManager5Modem5stateEv@Base 1.0.1
 _ZNK12ModemManager5Modem6deviceEv@Base 1.0.1
 _ZNK12ModemManager5Modem6pluginEv@Base 1.0.1
 _ZNK12ModemManager5Modem7driversEv@Base 1.0.1
 _ZNK12ModemManager5Modem7isValidEv@Base 1.0.1
 _ZNK12ModemManager5Modem7simPathEv@Base 1.0.1
 _ZNK12ModemManager5Modem8revisionEv@Base 1.0.1
 _ZNK12ModemManager5Modem9isEnabledEv@Base 1.0.1
 _ZNK12ModemManager6Bearer10metaObjectEv@Base 1.0.1
 _ZNK12ModemManager6Bearer10propertiesEv@Base 1.0.1
 _ZNK12ModemManager6Bearer11isConnectedEv@Base 1.0.1
 _ZNK12ModemManager6Bearer11isSuspendedEv@Base 1.0.1
 _ZNK12ModemManager6Bearer3uniEv@Base 1.0.1
 _ZNK12ModemManager6Bearer9interfaceEv@Base 1.0.1
 _ZNK12ModemManager6Bearer9ip4ConfigEv@Base 1.0.1
 _ZNK12ModemManager6Bearer9ip6ConfigEv@Base 1.0.1
 _ZNK12ModemManager6Bearer9ipTimeoutEv@Base 1.0.1
 _ZNK12ModemManager8Notifier10metaObjectEv@Base 1.0.1
 _ZNK12ModemManager9Interface10metaObjectEv@Base 1.0.1
 _ZNK12ModemManager9Interface3uniEv@Base 1.0.1
 _ZNK12ModemManager9Modem3gpp10metaObjectEv@Base 1.0.1
 _ZNK12ModemManager9Modem3gpp12operatorCodeEv@Base 1.0.1
 _ZNK12ModemManager9Modem3gpp12operatorNameEv@Base 1.0.1
 _ZNK12ModemManager9Modem3gpp17registrationStateEv@Base 1.0.1
 _ZNK12ModemManager9Modem3gpp20enabledFacilityLocksEv@Base 1.0.1
 _ZNK12ModemManager9Modem3gpp4imeiEv@Base 1.0.1
 _ZNK12ModemManager9ModemCdma10metaObjectEv@Base 1.0.1
 _ZNK12ModemManager9ModemCdma15activationStateEv@Base 1.0.1
 _ZNK12ModemManager9ModemCdma21evdoRegistrationStateEv@Base 1.0.1
 _ZNK12ModemManager9ModemCdma23cdma1xRegistrationStateEv@Base 1.0.1
 _ZNK12ModemManager9ModemCdma3esnEv@Base 1.0.1
 _ZNK12ModemManager9ModemCdma3nidEv@Base 1.0.1
 _ZNK12ModemManager9ModemCdma3sidEv@Base 1.0.1
 _ZNK12ModemManager9ModemCdma4meidEv@Base 1.0.1
 _ZNK12ModemManager9ModemTime10metaObjectEv@Base 1.0.1
 _ZNK12ModemManager9ModemTime15networkTimeZoneEv@Base 1.0.1
 _ZNK18ModemDevicePrivate10introspectEv@Base 1.0.1
 _ZNK36OrgFreedesktopModemManager1Interface10metaObjectEv@Base 1.0.1
 _ZNK39OrgFreedesktopModemManager1SimInterface10metaObjectEv@Base 1.0.1
 _ZNK39OrgFreedesktopModemManager1SmsInterface10metaObjectEv@Base 1.0.1
 _ZNK40OrgFreedesktopDBusObjectManagerInterface10metaObjectEv@Base 1.0.1
 _ZNK41OrgFreedesktopModemManager1ModemInterface10metaObjectEv@Base 1.0.1
 _ZNK42OrgFreedesktopModemManager1BearerInterface10metaObjectEv@Base 1.0.1
 _ZNK45OrgFreedesktopModemManager1ModemTimeInterface10metaObjectEv@Base 1.0.1
 _ZNK47OrgFreedesktopModemManager1ModemSimpleInterface10metaObjectEv@Base 1.0.1
 _ZNK49OrgFreedesktopModemManager1ModemLocationInterface10metaObjectEv@Base 1.0.1
 (optional=templinst)_ZNK4QMapI7QString14QSharedPointerIN12ModemManager11ModemDeviceEEE15mutableFindNodeEPPN8QMapData4NodeERKS0_@Base 1.0.1
 (optional=templinst)_ZNK4QMapI7QString14QSharedPointerIN12ModemManager3SmsEEE15mutableFindNodeEPPN8QMapData4NodeERKS0_@Base 1.0.1
 (optional=templinst)_ZNK4QMapI7QString8QVariantE15mutableFindNodeEPPN8QMapData4NodeERKS0_@Base 1.0.1
 (optional=templinst)_ZNK4QMapI7QStringS_IS0_8QVariantEE4keysEv@Base 1.0.1
 (optional=templinst)_ZNK4QMapIN12ModemManager11ModemDevice13InterfaceTypeE14QSharedPointerINS0_9InterfaceEEE15mutableFindNodeEPPN8QMapData4NodeERKS2_@Base 1.0.1
 _ZNK50OrgFreedesktopModemManager1ModemMessagingInterface10metaObjectEv@Base 1.0.1
 _ZNK50OrgFreedesktopModemManager1ModemModem3gppInterface10metaObjectEv@Base 1.0.1
 _ZNK50OrgFreedesktopModemManager1ModemModemCdmaInterface10metaObjectEv@Base 1.0.1
 _ZNK54OrgFreedesktopModemManager1ModemModem3gppUssdInterface10metaObjectEv@Base 1.0.1
 (optional=templinst)_ZNK5QListI7QStringE8containsERKS0_@Base 1.0.1
 _ZTI12ModemPrivate@Base 1.0.1
 _ZTI16InterfacePrivate@Base 1.0.1
 _ZTI16Modem3gppPrivate@Base 1.0.1
 _ZTI16ModemCdmaPrivate@Base 1.0.1
 _ZTI16ModemTimePrivate@Base 1.0.1
 _ZTI18ModemDevicePrivate@Base 1.0.1
 _ZTI20Modem3gppUssdPrivate@Base 1.0.1
 _ZTI20ModemLocationPrivate@Base 1.0.1
 _ZTI21ModemMessagingPrivate@Base 1.0.1
 _ZTI36OrgFreedesktopModemManager1Interface@Base 1.0.1
 _ZTI39OrgFreedesktopModemManager1SimInterface@Base 1.0.1
 _ZTI39OrgFreedesktopModemManager1SmsInterface@Base 1.0.1
 _ZTI40OrgFreedesktopDBusObjectManagerInterface@Base 1.0.1
 _ZTI41OrgFreedesktopModemManager1ModemInterface@Base 1.0.1
 _ZTI42OrgFreedesktopModemManager1BearerInterface@Base 1.0.1
 _ZTI45OrgFreedesktopModemManager1ModemTimeInterface@Base 1.0.1
 _ZTI47OrgFreedesktopModemManager1ModemSimpleInterface@Base 1.0.1
 _ZTI49OrgFreedesktopModemManager1ModemLocationInterface@Base 1.0.1
 _ZTI50OrgFreedesktopModemManager1ModemMessagingInterface@Base 1.0.1
 _ZTI50OrgFreedesktopModemManager1ModemModem3gppInterface@Base 1.0.1
 _ZTI50OrgFreedesktopModemManager1ModemModemCdmaInterface@Base 1.0.1
 _ZTI54OrgFreedesktopModemManager1ModemModem3gppUssdInterface@Base 1.0.1
 _ZTIN12ModemManager11ModemDeviceE@Base 1.0.1
 _ZTIN12ModemManager13Modem3gppUssdE@Base 1.0.1
 _ZTIN12ModemManager13ModemLocationE@Base 1.0.1
 _ZTIN12ModemManager14ModemMessagingE@Base 1.0.1
 _ZTIN12ModemManager19ModemManagerPrivateE@Base 1.0.1
 _ZTIN12ModemManager3SimE@Base 1.0.1
 _ZTIN12ModemManager3SmsE@Base 1.0.1
 _ZTIN12ModemManager5ModemE@Base 1.0.1
 _ZTIN12ModemManager6BearerE@Base 1.0.1
 _ZTIN12ModemManager8NotifierE@Base 1.0.1
 _ZTIN12ModemManager9InterfaceE@Base 1.0.1
 _ZTIN12ModemManager9Modem3gppE@Base 1.0.1
 _ZTIN12ModemManager9ModemCdmaE@Base 1.0.1
 _ZTIN12ModemManager9ModemTimeE@Base 1.0.1
 _ZTIN15QtSharedPointer20ExternalRefCountDataE@Base 1.0.1
 _ZTIN15QtSharedPointer29ExternalRefCountWithDestroyFnE@Base 1.0.1
 _ZTS12ModemPrivate@Base 1.0.1
 _ZTS16InterfacePrivate@Base 1.0.1
 _ZTS16Modem3gppPrivate@Base 1.0.1
 _ZTS16ModemCdmaPrivate@Base 1.0.1
 _ZTS16ModemTimePrivate@Base 1.0.1
 _ZTS18ModemDevicePrivate@Base 1.0.1
 _ZTS20Modem3gppUssdPrivate@Base 1.0.1
 _ZTS20ModemLocationPrivate@Base 1.0.1
 _ZTS21ModemMessagingPrivate@Base 1.0.1
 _ZTS36OrgFreedesktopModemManager1Interface@Base 1.0.1
 _ZTS39OrgFreedesktopModemManager1SimInterface@Base 1.0.1
 _ZTS39OrgFreedesktopModemManager1SmsInterface@Base 1.0.1
 _ZTS40OrgFreedesktopDBusObjectManagerInterface@Base 1.0.1
 _ZTS41OrgFreedesktopModemManager1ModemInterface@Base 1.0.1
 _ZTS42OrgFreedesktopModemManager1BearerInterface@Base 1.0.1
 _ZTS45OrgFreedesktopModemManager1ModemTimeInterface@Base 1.0.1
 _ZTS47OrgFreedesktopModemManager1ModemSimpleInterface@Base 1.0.1
 _ZTS49OrgFreedesktopModemManager1ModemLocationInterface@Base 1.0.1
 _ZTS50OrgFreedesktopModemManager1ModemMessagingInterface@Base 1.0.1
 _ZTS50OrgFreedesktopModemManager1ModemModem3gppInterface@Base 1.0.1
 _ZTS50OrgFreedesktopModemManager1ModemModemCdmaInterface@Base 1.0.1
 _ZTS54OrgFreedesktopModemManager1ModemModem3gppUssdInterface@Base 1.0.1
 _ZTSN12ModemManager11ModemDeviceE@Base 1.0.1
 _ZTSN12ModemManager13Modem3gppUssdE@Base 1.0.1
 _ZTSN12ModemManager13ModemLocationE@Base 1.0.1
 _ZTSN12ModemManager14ModemMessagingE@Base 1.0.1
 _ZTSN12ModemManager19ModemManagerPrivateE@Base 1.0.1
 _ZTSN12ModemManager3SimE@Base 1.0.1
 _ZTSN12ModemManager3SmsE@Base 1.0.1
 _ZTSN12ModemManager5ModemE@Base 1.0.1
 _ZTSN12ModemManager6BearerE@Base 1.0.1
 _ZTSN12ModemManager8NotifierE@Base 1.0.1
 _ZTSN12ModemManager9InterfaceE@Base 1.0.1
 _ZTSN12ModemManager9Modem3gppE@Base 1.0.1
 _ZTSN12ModemManager9ModemCdmaE@Base 1.0.1
 _ZTSN12ModemManager9ModemTimeE@Base 1.0.1
 _ZTSN15QtSharedPointer20ExternalRefCountDataE@Base 1.0.1
 _ZTSN15QtSharedPointer29ExternalRefCountWithDestroyFnE@Base 1.0.1
 _ZTV12ModemPrivate@Base 1.0.1
 _ZTV16InterfacePrivate@Base 1.0.1
 _ZTV16Modem3gppPrivate@Base 1.0.1
 _ZTV16ModemCdmaPrivate@Base 1.0.1
 _ZTV16ModemTimePrivate@Base 1.0.1
 _ZTV18ModemDevicePrivate@Base 1.0.1
 _ZTV20Modem3gppUssdPrivate@Base 1.0.1
 _ZTV20ModemLocationPrivate@Base 1.0.1
 _ZTV21ModemMessagingPrivate@Base 1.0.1
 _ZTV36OrgFreedesktopModemManager1Interface@Base 1.0.1
 _ZTV39OrgFreedesktopModemManager1SimInterface@Base 1.0.1
 _ZTV39OrgFreedesktopModemManager1SmsInterface@Base 1.0.1
 _ZTV40OrgFreedesktopDBusObjectManagerInterface@Base 1.0.1
 _ZTV41OrgFreedesktopModemManager1ModemInterface@Base 1.0.1
 _ZTV42OrgFreedesktopModemManager1BearerInterface@Base 1.0.1
 _ZTV45OrgFreedesktopModemManager1ModemTimeInterface@Base 1.0.1
 _ZTV47OrgFreedesktopModemManager1ModemSimpleInterface@Base 1.0.1
 _ZTV49OrgFreedesktopModemManager1ModemLocationInterface@Base 1.0.1
 _ZTV50OrgFreedesktopModemManager1ModemMessagingInterface@Base 1.0.1
 _ZTV50OrgFreedesktopModemManager1ModemModem3gppInterface@Base 1.0.1
 _ZTV50OrgFreedesktopModemManager1ModemModemCdmaInterface@Base 1.0.1
 _ZTV54OrgFreedesktopModemManager1ModemModem3gppUssdInterface@Base 1.0.1
 _ZTVN12ModemManager11ModemDeviceE@Base 1.0.1
 _ZTVN12ModemManager13Modem3gppUssdE@Base 1.0.1
 _ZTVN12ModemManager13ModemLocationE@Base 1.0.1
 _ZTVN12ModemManager14ModemMessagingE@Base 1.0.1
 _ZTVN12ModemManager19ModemManagerPrivateE@Base 1.0.1
 _ZTVN12ModemManager3SimE@Base 1.0.1
 _ZTVN12ModemManager3SmsE@Base 1.0.1
 _ZTVN12ModemManager5ModemE@Base 1.0.1
 _ZTVN12ModemManager6BearerE@Base 1.0.1
 _ZTVN12ModemManager8NotifierE@Base 1.0.1
 _ZTVN12ModemManager9InterfaceE@Base 1.0.1
 _ZTVN12ModemManager9Modem3gppE@Base 1.0.1
 _ZTVN12ModemManager9ModemCdmaE@Base 1.0.1
 _ZTVN12ModemManager9ModemTimeE@Base 1.0.1
 _ZTVN15QtSharedPointer20ExternalRefCountDataE@Base 1.0.1
 _ZTVN15QtSharedPointer29ExternalRefCountWithDestroyFnE@Base 1.0.1
 (optional=templinst)_ZZN11QMetaTypeIdI12QDBusVariantE14qt_metatype_idEvE11metatype_id@Base 1.0.1
 (optional=templinst)_ZZN11QMetaTypeIdI12ValidityPairE14qt_metatype_idEvE11metatype_id@Base 1.0.1
 (optional=templinst)_ZZN11QMetaTypeIdI13QDBusArgumentE14qt_metatype_idEvE11metatype_id@Base 1.0.1
 (optional=templinst)_ZZN11QMetaTypeIdI15QDBusObjectPathE14qt_metatype_idEvE11metatype_id@Base 1.0.1
 (optional=templinst)_ZZN11QMetaTypeIdI16CurrentModesTypeE14qt_metatype_idEvE11metatype_id@Base 1.0.1
 (optional=templinst)_ZZN11QMetaTypeIdI17SignalQualityPairE14qt_metatype_idEvE11metatype_id@Base 1.0.1
 (optional=templinst)_ZZN11QMetaTypeIdI4QMapI15QDBusObjectPathS0_I7QStringS0_IS2_8QVariantEEEE14qt_metatype_idEvE11metatype_id@Base 1.0.1
 (optional=templinst)_ZZN11QMetaTypeIdI4QMapI21MMModemLocationSource8QVariantEE14qt_metatype_idEvE11metatype_id@Base 1.0.1
 (optional=templinst)_ZZN11QMetaTypeIdI4QMapI7QStringS0_IS1_8QVariantEEE14qt_metatype_idEvE11metatype_id@Base 1.0.1
 (optional=templinst)_ZZN11QMetaTypeIdI4QMapIjjEE14qt_metatype_idEvE11metatype_id@Base 1.0.1
 (optional=templinst)_ZZN11QMetaTypeIdI5QListI15QDBusObjectPathEE14qt_metatype_idEvE11metatype_id@Base 1.0.1
 (optional=templinst)_ZZN11QMetaTypeIdI5QListI16CurrentModesTypeEE14qt_metatype_idEvE11metatype_id@Base 1.0.1
 (optional=templinst)_ZZN11QMetaTypeIdI5QListI4QMapI7QString8QVariantEEE14qt_metatype_idEvE11metatype_id@Base 1.0.1
 (optional=templinst)_ZZN11QMetaTypeIdI5QListIjEE14qt_metatype_idEvE11metatype_id@Base 1.0.1
 _ZlsR13QDBusArgumentRK12ValidityPair@Base 1.0.1
 _ZlsR13QDBusArgumentRK16CurrentModesType@Base 1.0.1
 _ZlsR13QDBusArgumentRK17SignalQualityPair@Base 1.0.1
 _ZlsR13QDBusArgumentRK5QListI4QMapI7QString8QVariantEE@Base 1.0.1
 (optional=templinst)_ZrsI15QDBusObjectPath4QMapI7QStringS1_IS2_8QVariantEEERK13QDBusArgumentS8_RS1_IT_T0_E@Base 1.0.1
 _ZrsRK13QDBusArgumentR12ValidityPair@Base 1.0.1
 _ZrsRK13QDBusArgumentR16CurrentModesType@Base 1.0.1
 _ZrsRK13QDBusArgumentR17SignalQualityPair@Base 1.0.1
 _ZrsRK13QDBusArgumentR5QListI4QMapI7QString8QVariantEE@Base 1.0.1
