# SymbolsHelper-Confirmed: 0.5.1 amd64 s390x
libModemManagerQt.so.0 libmodemmanagerqt0 #MINVER#
 (optional=templinst)_Z19qDBusMarshallHelperI5QListI15QDBusObjectPathEEvR13QDBusArgumentPKT_@Base 0.0~git20130816
 (optional=templinst)_Z19qDBusMarshallHelperI5QListI4QMapI7QString8QVariantEEEvR13QDBusArgumentPKT_@Base 0.5.0
 (optional=templinst)_Z19qDBusMarshallHelperIN12ModemManager14ModemInterface13Ip4ConfigTypeEEvR13QDBusArgumentPKT_@Base 0.0~git20130816
 (optional=templinst)_Z19qDBusMarshallHelperIN12ModemManager14ModemInterface8InfoTypeEEvR13QDBusArgumentPKT_@Base 0.0~git20130816
 (optional=templinst)_Z19qDBusMarshallHelperIN12ModemManager18ModemCdmaInterface17ServingSystemTypeEEvR13QDBusArgumentPKT_@Base 0.0~git20130816
 (optional=templinst)_Z19qDBusMarshallHelperIN12ModemManager24ModemGsmNetworkInterface20RegistrationInfoTypeEEvR13QDBusArgumentPKT_@Base 0.0~git20130816
 (optional=templinst)_Z19qDBusMarshallHelperIN12ModemManager25ModemGsmContactsInterface11ContactTypeEEvR13QDBusArgumentPKT_@Base 0.0~git20130816
 (optional=templinst)_Z21qDBusDemarshallHelperI5QListI15QDBusObjectPathEEvRK13QDBusArgumentPT_@Base 0.0~git20130816
 (optional=templinst)_Z21qDBusDemarshallHelperI5QListI4QMapI7QString8QVariantEEEvRK13QDBusArgumentPT_@Base 0.5.0
 (optional=templinst)_Z21qDBusDemarshallHelperIN12ModemManager14ModemInterface13Ip4ConfigTypeEEvRK13QDBusArgumentPT_@Base 0.0~git20130816
 (optional=templinst)_Z21qDBusDemarshallHelperIN12ModemManager14ModemInterface8InfoTypeEEvRK13QDBusArgumentPT_@Base 0.0~git20130816
 (optional=templinst)_Z21qDBusDemarshallHelperIN12ModemManager18ModemCdmaInterface17ServingSystemTypeEEvRK13QDBusArgumentPT_@Base 0.0~git20130816
 (optional=templinst)_Z21qDBusDemarshallHelperIN12ModemManager24ModemGsmNetworkInterface20RegistrationInfoTypeEEvRK13QDBusArgumentPT_@Base 0.0~git20130816
 (optional=templinst)_Z21qDBusDemarshallHelperIN12ModemManager25ModemGsmContactsInterface11ContactTypeEEvRK13QDBusArgumentPT_@Base 0.0~git20130816
 (optional=templinst)_Z21qMetaTypeDeleteHelperI12QDBusVariantEvPT_@Base 0.5.0
 (optional=templinst)_Z21qMetaTypeDeleteHelperI13QDBusArgumentEvPT_@Base 0.0~git20130816
 (optional=templinst)_Z21qMetaTypeDeleteHelperI15QDBusObjectPathEvPT_@Base 0.0~git20130816
 (optional=templinst)_Z21qMetaTypeDeleteHelperI5QListI15QDBusObjectPathEEvPT_@Base 0.0~git20130816
 (optional=templinst)_Z21qMetaTypeDeleteHelperI5QListI4QMapI7QString8QVariantEEEvPT_@Base 0.0~git20130816
 (optional=templinst)_Z21qMetaTypeDeleteHelperI5QListI4QMapI7QStringS2_EEEvPT_@Base 0.0~git20130816
 (optional=templinst)_Z21qMetaTypeDeleteHelperI5QListI4QMapIN12ModemManager22ModemLocationInterface10CapabilityE8QVariantEEEvPT_@Base 0.0~git20130816
 (optional=templinst)_Z21qMetaTypeDeleteHelperI5QListIN12ModemManager25ModemGsmContactsInterface11ContactTypeEEEvPT_@Base 0.0~git20130816
 (optional=templinst)_Z21qMetaTypeDeleteHelperIN12ModemManager14ModemInterface13Ip4ConfigTypeEEvPT_@Base 0.0~git20130816
 (optional=templinst)_Z21qMetaTypeDeleteHelperIN12ModemManager14ModemInterface8InfoTypeEEvPT_@Base 0.0~git20130816
 (optional=templinst)_Z21qMetaTypeDeleteHelperIN12ModemManager18ModemCdmaInterface17ServingSystemTypeEEvPT_@Base 0.0~git20130816
 (optional=templinst)_Z21qMetaTypeDeleteHelperIN12ModemManager18ModemCdmaInterface23RegistrationStateResultEEvPT_@Base 0.0~git20130816
 (optional=templinst)_Z21qMetaTypeDeleteHelperIN12ModemManager24ModemGsmNetworkInterface20RegistrationInfoTypeEEvPT_@Base 0.0~git20130816
 (optional=templinst)_Z21qMetaTypeDeleteHelperIN12ModemManager25ModemGsmContactsInterface11ContactTypeEEvPT_@Base 0.0~git20130816
 (optional=templinst)_Z24qMetaTypeConstructHelperI12QDBusVariantEPvPKT_@Base 0.5.0
 (optional=templinst)_Z24qMetaTypeConstructHelperI13QDBusArgumentEPvPKT_@Base 0.0~git20130816
 (optional=templinst)_Z24qMetaTypeConstructHelperI15QDBusObjectPathEPvPKT_@Base 0.0~git20130816
 (optional=templinst)_Z24qMetaTypeConstructHelperI5QListI15QDBusObjectPathEEPvPKT_@Base 0.0~git20130816
 (optional=templinst)_Z24qMetaTypeConstructHelperI5QListI4QMapI7QString8QVariantEEEPvPKT_@Base 0.0~git20130816
 (optional=templinst)_Z24qMetaTypeConstructHelperI5QListI4QMapI7QStringS2_EEEPvPKT_@Base 0.0~git20130816
 (optional=templinst)_Z24qMetaTypeConstructHelperI5QListI4QMapIN12ModemManager22ModemLocationInterface10CapabilityE8QVariantEEEPvPKT_@Base 0.0~git20130816
 (optional=templinst)_Z24qMetaTypeConstructHelperI5QListIN12ModemManager25ModemGsmContactsInterface11ContactTypeEEEPvPKT_@Base 0.0~git20130816
 (optional=templinst)_Z24qMetaTypeConstructHelperIN12ModemManager14ModemInterface13Ip4ConfigTypeEEPvPKT_@Base 0.0~git20130816
 (optional=templinst)_Z24qMetaTypeConstructHelperIN12ModemManager14ModemInterface8InfoTypeEEPvPKT_@Base 0.0~git20130816
 (optional=templinst)_Z24qMetaTypeConstructHelperIN12ModemManager18ModemCdmaInterface17ServingSystemTypeEEPvPKT_@Base 0.0~git20130816
 (optional=templinst)_Z24qMetaTypeConstructHelperIN12ModemManager18ModemCdmaInterface23RegistrationStateResultEEPvPKT_@Base 0.0~git20130816
 (optional=templinst)_Z24qMetaTypeConstructHelperIN12ModemManager24ModemGsmNetworkInterface20RegistrationInfoTypeEEPvPKT_@Base 0.0~git20130816
 (optional=templinst)_Z24qMetaTypeConstructHelperIN12ModemManager25ModemGsmContactsInterface11ContactTypeEEPvPKT_@Base 0.0~git20130816
 _ZN10QByteArrayD1Ev@Base 0.0~git20130816
 _ZN10QByteArrayD2Ev@Base 0.0~git20130816
 _ZN10QDBusErrorD1Ev@Base 0.0~git20130816
 _ZN10QDBusErrorD2Ev@Base 0.0~git20130816
 (optional=templinst)_ZN10QDBusReplyI4QMapI7QString8QVariantEED1Ev@Base 0.0~git20130816
 (optional=templinst)_ZN10QDBusReplyI4QMapI7QString8QVariantEED2Ev@Base 0.0~git20130816
 (optional=templinst)_ZN10QDBusReplyI5QListI15QDBusObjectPathEED1Ev@Base 0.0~git20130816
 (optional=templinst)_ZN10QDBusReplyI5QListI15QDBusObjectPathEED2Ev@Base 0.0~git20130816
 (optional=templinst)_ZN10QDBusReplyI5QListI4QMapI7QString8QVariantEEED1Ev@Base 0.0~git20130816
 (optional=templinst)_ZN10QDBusReplyI5QListI4QMapI7QString8QVariantEEED2Ev@Base 0.0~git20130816
 (optional=templinst)_ZN10QDBusReplyI5QListI4QMapIN12ModemManager22ModemLocationInterface10CapabilityE8QVariantEEED1Ev@Base 0.0~git20130816
 (optional=templinst)_ZN10QDBusReplyI5QListI4QMapIN12ModemManager22ModemLocationInterface10CapabilityE8QVariantEEED2Ev@Base 0.0~git20130816
 (optional=templinst)_ZN10QDBusReplyI5QListIN12ModemManager25ModemGsmContactsInterface11ContactTypeEEED1Ev@Base 0.0~git20130816
 (optional=templinst)_ZN10QDBusReplyI5QListIN12ModemManager25ModemGsmContactsInterface11ContactTypeEEED2Ev@Base 0.0~git20130816
 (optional=templinst)_ZN10QDBusReplyI7QStringED1Ev@Base 0.0~git20130816
 (optional=templinst)_ZN10QDBusReplyI7QStringED2Ev@Base 0.0~git20130816
 (optional=templinst)_ZN10QDBusReplyIN12ModemManager14ModemInterface13Ip4ConfigTypeEED1Ev@Base 0.0~git20130816
 (optional=templinst)_ZN10QDBusReplyIN12ModemManager14ModemInterface13Ip4ConfigTypeEED2Ev@Base 0.0~git20130816
 (optional=templinst|arch=s390x)_ZN10QDBusReplyIN12ModemManager14ModemInterface13Ip4ConfigTypeEEaSERK12QDBusMessage@Base 0.5.1
 (optional=templinst)_ZN10QDBusReplyIN12ModemManager14ModemInterface8InfoTypeEED1Ev@Base 0.0~git20130816
 (optional=templinst)_ZN10QDBusReplyIN12ModemManager14ModemInterface8InfoTypeEED2Ev@Base 0.0~git20130816
 (optional=templinst|arch=s390x)_ZN10QDBusReplyIN12ModemManager14ModemInterface8InfoTypeEEaSERK12QDBusMessage@Base 0.5.1
 (optional=templinst)_ZN10QDBusReplyIN12ModemManager18ModemCdmaInterface17ServingSystemTypeEED1Ev@Base 0.0~git20130816
 (optional=templinst)_ZN10QDBusReplyIN12ModemManager18ModemCdmaInterface17ServingSystemTypeEED2Ev@Base 0.0~git20130816
 (optional=templinst)_ZN10QDBusReplyIN12ModemManager25ModemGsmContactsInterface11ContactTypeEED1Ev@Base 0.0~git20130816
 (optional=templinst)_ZN10QDBusReplyIN12ModemManager25ModemGsmContactsInterface11ContactTypeEED2Ev@Base 0.0~git20130816
 (optional=templinst|arch=amd64)_ZN11QMetaTypeIdI12QDBusVariantE14qt_metatype_idEv@Base 0.5.0
 (optional=templinst|arch=amd64)_ZN11QMetaTypeIdI13QDBusArgumentE14qt_metatype_idEv@Base 0.0~git20130816
 (optional=templinst|arch=amd64)_ZN11QMetaTypeIdI15QDBusObjectPathE14qt_metatype_idEv@Base 0.0~git20130816
 (optional=templinst|arch=amd64)_ZN11QMetaTypeIdI5QListI15QDBusObjectPathEE14qt_metatype_idEv@Base 0.0~git20130816
 (optional=templinst|arch=amd64)_ZN11QMetaTypeIdI5QListI4QMapI7QString8QVariantEEE14qt_metatype_idEv@Base 0.0~git20130816
 (optional=templinst|arch=amd64)_ZN11QMetaTypeIdI5QListI4QMapI7QStringS2_EEE14qt_metatype_idEv@Base 0.0~git20130816
 (optional=templinst|arch=amd64)_ZN11QMetaTypeIdI5QListI4QMapIN12ModemManager22ModemLocationInterface10CapabilityE8QVariantEEE14qt_metatype_idEv@Base 0.0~git20130816
 (optional=templinst|arch=amd64)_ZN11QMetaTypeIdI5QListIN12ModemManager25ModemGsmContactsInterface11ContactTypeEEE14qt_metatype_idEv@Base 0.0~git20130816
 (optional=templinst|arch=amd64)_ZN11QMetaTypeIdIN12ModemManager14ModemInterface13Ip4ConfigTypeEE14qt_metatype_idEv@Base 0.0~git20130816
 (optional=templinst|arch=amd64)_ZN11QMetaTypeIdIN12ModemManager14ModemInterface8InfoTypeEE14qt_metatype_idEv@Base 0.0~git20130816
 (optional=templinst|arch=amd64)_ZN11QMetaTypeIdIN12ModemManager18ModemCdmaInterface17ServingSystemTypeEE14qt_metatype_idEv@Base 0.0~git20130816
 (optional=templinst|arch=amd64)_ZN11QMetaTypeIdIN12ModemManager18ModemCdmaInterface23RegistrationStateResultEE14qt_metatype_idEv@Base 0.0~git20130816
 (optional=templinst|arch=amd64)_ZN11QMetaTypeIdIN12ModemManager24ModemGsmNetworkInterface20RegistrationInfoTypeEE14qt_metatype_idEv@Base 0.0~git20130816
 (optional=templinst|arch=amd64)_ZN11QMetaTypeIdIN12ModemManager25ModemGsmContactsInterface11ContactTypeEE14qt_metatype_idEv@Base 0.0~git20130816
 _ZN12ModemManager12DBUS_SERVICEE@Base 0.0~git20130816
 _ZN12ModemManager14ModemInterface11qt_metacallEN11QMetaObject4CallEiPPv@Base 0.0~git20130816
 _ZN12ModemManager14ModemInterface11qt_metacastEPKc@Base 0.0~git20130816
 _ZN12ModemManager14ModemInterface11typeChangedENS0_4TypeE@Base 0.0~git20130816
 _ZN12ModemManager14ModemInterface12connectModemERK4QMapI7QString8QVariantE@Base 0.0~git20130816
 _ZN12ModemManager14ModemInterface12connectModemERK7QString@Base 0.0~git20130816
 _ZN12ModemManager14ModemInterface12getIp4ConfigEv@Base 0.0~git20130816
 _ZN12ModemManager14ModemInterface13Ip4ConfigTypeD1Ev@Base 0.0~git20130816
 _ZN12ModemManager14ModemInterface13Ip4ConfigTypeD2Ev@Base 0.0~git20130816
 _ZN12ModemManager14ModemInterface13deviceChangedERK7QString@Base 0.0~git20130816
 _ZN12ModemManager14ModemInterface13driverChangedERK7QString@Base 0.0~git20130816
 _ZN12ModemManager14ModemInterface14enabledChangedEb@Base 0.0~git20130816
 _ZN12ModemManager14ModemInterface15disconnectModemEv@Base 0.0~git20130816
 _ZN12ModemManager14ModemInterface15ipMethodChangedENS0_6MethodE@Base 0.0~git20130816
 _ZN12ModemManager14ModemInterface16staticMetaObjectE@Base 0.0~git20130816
 _ZN12ModemManager14ModemInterface17propertiesChangedERK7QStringRK4QMapIS1_8QVariantE@Base 0.0~git20130816
 _ZN12ModemManager14ModemInterface19masterDeviceChangedERK7QString@Base 0.0~git20130816
 _ZN12ModemManager14ModemInterface21unlockRequiredChangedERK7QString@Base 0.0~git20130816
 _ZN12ModemManager14ModemInterface4initEv@Base 0.0~git20130816
 _ZN12ModemManager14ModemInterface6enableEb@Base 0.0~git20130816
 _ZN12ModemManager14ModemInterface7getInfoEv@Base 0.0~git20130816
 _ZN12ModemManager14ModemInterface8InfoTypeD1Ev@Base 0.0~git20130816
 _ZN12ModemManager14ModemInterface8InfoTypeD2Ev@Base 0.0~git20130816
 _ZN12ModemManager14ModemInterface9getStatusEv@Base 0.0~git20130816
 _ZN12ModemManager14ModemInterfaceC1ER21ModemInterfacePrivateP7QObject@Base 0.0~git20130816
 _ZN12ModemManager14ModemInterfaceC1ERK7QStringP7QObject@Base 0.0~git20130816
 _ZN12ModemManager14ModemInterfaceC2ER21ModemInterfacePrivateP7QObject@Base 0.0~git20130816
 _ZN12ModemManager14ModemInterfaceC2ERK7QStringP7QObject@Base 0.0~git20130816
 _ZN12ModemManager14ModemInterfaceD0Ev@Base 0.0~git20130816
 _ZN12ModemManager14ModemInterfaceD1Ev@Base 0.0~git20130816
 _ZN12ModemManager14ModemInterfaceD2Ev@Base 0.0~git20130816
 _ZN12ModemManager15modemInterfacesEv@Base 0.0~git20130816
 _ZN12ModemManager16DBUS_DAEMON_PATHE@Base 0.0~git20130816
 _ZN12ModemManager18ModemCdmaInterface11qt_metacallEN11QMetaObject4CallEiPPv@Base 0.0~git20130816
 _ZN12ModemManager18ModemCdmaInterface11qt_metacastEPKc@Base 0.0~git20130816
 _ZN12ModemManager18ModemCdmaInterface16getServingSystemEv@Base 0.0~git20130816
 _ZN12ModemManager18ModemCdmaInterface16getSignalQualityEv@Base 0.0~git20130816
 _ZN12ModemManager18ModemCdmaInterface16staticMetaObjectE@Base 0.0~git20130816
 _ZN12ModemManager18ModemCdmaInterface20getRegistrationStateEv@Base 0.0~git20130816
 _ZN12ModemManager18ModemCdmaInterface20signalQualityChangedEj@Base 0.0~git20130816
 _ZN12ModemManager18ModemCdmaInterface24registrationStateChangedENS0_17RegistrationStateES1_@Base 0.0~git20130816
 _ZN12ModemManager18ModemCdmaInterface6getEsnEv@Base 0.0~git20130816
 _ZN12ModemManager18ModemCdmaInterfaceC1ERK7QStringP7QObject@Base 0.0~git20130816
 _ZN12ModemManager18ModemCdmaInterfaceC2ERK7QStringP7QObject@Base 0.0~git20130816
 _ZN12ModemManager18ModemCdmaInterfaceD0Ev@Base 0.0~git20130816
 _ZN12ModemManager18ModemCdmaInterfaceD1Ev@Base 0.0~git20130816
 _ZN12ModemManager18ModemCdmaInterfaceD2Ev@Base 0.0~git20130816
 _ZN12ModemManager18findModemInterfaceERK7QStringNS_14ModemInterface16GsmInterfaceTypeE@Base 0.0~git20130816
 _ZN12ModemManager19ModemManagerPrivate11deviceAddedERK15QDBusObjectPath@Base 0.0~git20130816
 _ZN12ModemManager19ModemManagerPrivate11qt_metacallEN11QMetaObject4CallEiPPv@Base 0.0~git20130816
 _ZN12ModemManager19ModemManagerPrivate11qt_metacastEPKc@Base 0.0~git20130816
 _ZN12ModemManager19ModemManagerPrivate13deviceRemovedERK15QDBusObjectPath@Base 0.0~git20130816
 _ZN12ModemManager19ModemManagerPrivate16daemonRegisteredEv@Base 0.0~git20130816
 _ZN12ModemManager19ModemManagerPrivate16staticMetaObjectE@Base 0.0~git20130816
 _ZN12ModemManager19ModemManagerPrivate18daemonUnregisteredEv@Base 0.0~git20130816
 _ZN12ModemManager19ModemManagerPrivate18findModemInterfaceERK7QStringNS_14ModemInterface16GsmInterfaceTypeE@Base 0.0~git20130816
 _ZN12ModemManager19ModemManagerPrivate20createModemInterfaceERK7QStringNS_14ModemInterface16GsmInterfaceTypeE@Base 0.0~git20130816
 _ZN12ModemManager19ModemManagerPrivate4initEv@Base 0.0~git20130816
 _ZN12ModemManager19ModemManagerPrivateC1Ev@Base 0.0~git20130816
 _ZN12ModemManager19ModemManagerPrivateC2Ev@Base 0.0~git20130816
 _ZN12ModemManager19ModemManagerPrivateD0Ev@Base 0.0~git20130816
 _ZN12ModemManager19ModemManagerPrivateD1Ev@Base 0.0~git20130816
 _ZN12ModemManager19ModemManagerPrivateD2Ev@Base 0.0~git20130816
 _ZN12ModemManager20ModemGsmHsoInterface11qt_metacallEN11QMetaObject4CallEiPPv@Base 0.0~git20130816
 _ZN12ModemManager20ModemGsmHsoInterface11qt_metacastEPKc@Base 0.0~git20130816
 _ZN12ModemManager20ModemGsmHsoInterface12authenticateERK7QStringS3_@Base 0.0~git20130816
 _ZN12ModemManager20ModemGsmHsoInterface16staticMetaObjectE@Base 0.0~git20130816
 _ZN12ModemManager20ModemGsmHsoInterfaceC1ERK7QStringP7QObject@Base 0.0~git20130816
 _ZN12ModemManager20ModemGsmHsoInterfaceC2ERK7QStringP7QObject@Base 0.0~git20130816
 _ZN12ModemManager20ModemGsmHsoInterfaceD0Ev@Base 0.0~git20130816
 _ZN12ModemManager20ModemGsmHsoInterfaceD1Ev@Base 0.0~git20130816
 _ZN12ModemManager20ModemGsmHsoInterfaceD2Ev@Base 0.0~git20130816
 _ZN12ModemManager20ModemGsmSmsInterface11qt_metacallEN11QMetaObject4CallEiPPv@Base 0.0~git20130816
 _ZN12ModemManager20ModemGsmSmsInterface11qt_metacastEPKc@Base 0.0~git20130816
 _ZN12ModemManager20ModemGsmSmsInterface11smsReceivedEjb@Base 0.5.0
 _ZN12ModemManager20ModemGsmSmsInterface13setIndicationEiiiii@Base 0.0~git20130816
 _ZN12ModemManager20ModemGsmSmsInterface15sendFromStorageEi@Base 0.0~git20130816
 _ZN12ModemManager20ModemGsmSmsInterface16staticMetaObjectE@Base 0.0~git20130816
 _ZN12ModemManager20ModemGsmSmsInterface3getEi@Base 0.0~git20130816
 _ZN12ModemManager20ModemGsmSmsInterface4listEv@Base 0.0~git20130816
 _ZN12ModemManager20ModemGsmSmsInterface4saveERK4QMapI7QString8QVariantE@Base 0.0~git20130816
 _ZN12ModemManager20ModemGsmSmsInterface4sendERK4QMapI7QString8QVariantE@Base 0.0~git20130816
 _ZN12ModemManager20ModemGsmSmsInterface7getSmscEv@Base 0.0~git20130816
 _ZN12ModemManager20ModemGsmSmsInterface9completedEjb@Base 0.5.0
 _ZN12ModemManager20ModemGsmSmsInterface9deleteSmsEi@Base 0.0~git20130816
 _ZN12ModemManager20ModemGsmSmsInterface9getFormatEv@Base 0.0~git20130816
 _ZN12ModemManager20ModemGsmSmsInterface9setFormatEi@Base 0.0~git20130816
 _ZN12ModemManager20ModemGsmSmsInterfaceC1ERK7QStringP7QObject@Base 0.0~git20130816
 _ZN12ModemManager20ModemGsmSmsInterfaceC2ERK7QStringP7QObject@Base 0.0~git20130816
 _ZN12ModemManager20ModemGsmSmsInterfaceD0Ev@Base 0.0~git20130816
 _ZN12ModemManager20ModemGsmSmsInterfaceD1Ev@Base 0.0~git20130816
 _ZN12ModemManager20ModemGsmSmsInterfaceD2Ev@Base 0.0~git20130816
 _ZN12ModemManager21ModemGsmCardInterface10operatorIdEv@Base 0.5.1
 _ZN12ModemManager21ModemGsmCardInterface11qt_metacallEN11QMetaObject4CallEiPPv@Base 0.0~git20130816
 _ZN12ModemManager21ModemGsmCardInterface11qt_metacastEPKc@Base 0.0~git20130816
 _ZN12ModemManager21ModemGsmCardInterface16staticMetaObjectE@Base 0.0~git20130816
 _ZN12ModemManager21ModemGsmCardInterface17propertiesChangedERK7QStringRK4QMapIS1_8QVariantE@Base 0.0~git20130816
 _ZN12ModemManager21ModemGsmCardInterface19serviceProviderNameEv@Base 0.5.1
 _ZN12ModemManager21ModemGsmCardInterface20simIdentifierChangedERK7QString@Base 0.5.1
 _ZN12ModemManager21ModemGsmCardInterface21supportedBandsChangedENS_14ModemInterface4BandE@Base 0.0~git20130816
 _ZN12ModemManager21ModemGsmCardInterface21supportedModesChangedENS_14ModemInterface4ModeE@Base 0.0~git20130816
 _ZN12ModemManager21ModemGsmCardInterface7getImeiEv@Base 0.0~git20130816
 _ZN12ModemManager21ModemGsmCardInterface7getImsiEv@Base 0.0~git20130816
 _ZN12ModemManager21ModemGsmCardInterface7sendPinERK7QString@Base 0.0~git20130816
 _ZN12ModemManager21ModemGsmCardInterface7sendPukERK7QStringS3_@Base 0.0~git20130816
 _ZN12ModemManager21ModemGsmCardInterface9changePinERK7QStringS3_@Base 0.0~git20130816
 _ZN12ModemManager21ModemGsmCardInterface9enablePinERK7QStringb@Base 0.0~git20130816
 _ZN12ModemManager21ModemGsmCardInterfaceC1ERK7QStringP7QObject@Base 0.0~git20130816
 _ZN12ModemManager21ModemGsmCardInterfaceC2ERK7QStringP7QObject@Base 0.0~git20130816
 _ZN12ModemManager21ModemGsmCardInterfaceD0Ev@Base 0.0~git20130816
 _ZN12ModemManager21ModemGsmCardInterfaceD1Ev@Base 0.0~git20130816
 _ZN12ModemManager21ModemGsmCardInterfaceD2Ev@Base 0.0~git20130816
 _ZN12ModemManager21ModemGsmUssdInterface11qt_metacallEN11QMetaObject4CallEiPPv@Base 0.0~git20130816
 _ZN12ModemManager21ModemGsmUssdInterface11qt_metacastEPKc@Base 0.0~git20130816
 _ZN12ModemManager21ModemGsmUssdInterface12stateChangedERK7QString@Base 0.0~git20130816
 _ZN12ModemManager21ModemGsmUssdInterface16staticMetaObjectE@Base 0.0~git20130816
 _ZN12ModemManager21ModemGsmUssdInterface17getNetworkRequestEv@Base 0.0~git20130816
 _ZN12ModemManager21ModemGsmUssdInterface17propertiesChangedERK7QStringRK4QMapIS1_8QVariantE@Base 0.0~git20130816
 _ZN12ModemManager21ModemGsmUssdInterface21networkRequestChangedERK7QString@Base 0.0~git20130816
 _ZN12ModemManager21ModemGsmUssdInterface22getNetworkNotificationEv@Base 0.0~git20130816
 _ZN12ModemManager21ModemGsmUssdInterface26networkNotificationChangedERK7QString@Base 0.0~git20130816
 _ZN12ModemManager21ModemGsmUssdInterface6cancelEv@Base 0.0~git20130816
 _ZN12ModemManager21ModemGsmUssdInterface7respondE7QString@Base 0.0~git20130816
 _ZN12ModemManager21ModemGsmUssdInterface8getStateEv@Base 0.0~git20130816
 _ZN12ModemManager21ModemGsmUssdInterface8initiateERK7QString@Base 0.0~git20130816
 _ZN12ModemManager21ModemGsmUssdInterfaceC1ERK7QStringP7QObject@Base 0.0~git20130816
 _ZN12ModemManager21ModemGsmUssdInterfaceC2ERK7QStringP7QObject@Base 0.0~git20130816
 _ZN12ModemManager21ModemGsmUssdInterfaceD0Ev@Base 0.0~git20130816
 _ZN12ModemManager21ModemGsmUssdInterfaceD1Ev@Base 0.0~git20130816
 _ZN12ModemManager21ModemGsmUssdInterfaceD2Ev@Base 0.0~git20130816
 _ZN12ModemManager22ModemLocationInterface11getLocationEv@Base 0.0~git20130816
 _ZN12ModemManager22ModemLocationInterface11qt_metacallEN11QMetaObject4CallEiPPv@Base 0.0~git20130816
 _ZN12ModemManager22ModemLocationInterface11qt_metacastEPKc@Base 0.0~git20130816
 _ZN12ModemManager22ModemLocationInterface14enableLocationEbb@Base 0.0~git20130816
 _ZN12ModemManager22ModemLocationInterface14enabledChangedEb@Base 0.0~git20130816
 _ZN12ModemManager22ModemLocationInterface15locationChangedERK5QListI4QMapINS0_10CapabilityE8QVariantEE@Base 0.0~git20130816
 _ZN12ModemManager22ModemLocationInterface16staticMetaObjectE@Base 0.0~git20130816
 _ZN12ModemManager22ModemLocationInterface17propertiesChangedERK7QStringRK4QMapIS1_8QVariantE@Base 0.0~git20130816
 _ZN12ModemManager22ModemLocationInterface19capabilitiesChangedENS0_10CapabilityE@Base 0.0~git20130816
 _ZN12ModemManager22ModemLocationInterface22signalsLocationChangedEb@Base 0.0~git20130816
 _ZN12ModemManager22ModemLocationInterfaceC1ERK7QStringP7QObject@Base 0.0~git20130816
 _ZN12ModemManager22ModemLocationInterfaceC2ERK7QStringP7QObject@Base 0.0~git20130816
 _ZN12ModemManager22ModemLocationInterfaceD0Ev@Base 0.0~git20130816
 _ZN12ModemManager22ModemLocationInterfaceD1Ev@Base 0.0~git20130816
 _ZN12ModemManager22ModemLocationInterfaceD2Ev@Base 0.0~git20130816
 _ZN12ModemManager24ModemGsmNetworkInterface11qt_metacallEN11QMetaObject4CallEiPPv@Base 0.0~git20130816
 _ZN12ModemManager24ModemGsmNetworkInterface11qt_metacastEPKc@Base 0.0~git20130816
 _ZN12ModemManager24ModemGsmNetworkInterface14setAllowedModeENS_14ModemInterface11AllowedModeE@Base 0.0~git20130816
 _ZN12ModemManager24ModemGsmNetworkInterface16staticMetaObjectE@Base 0.0~git20130816
 _ZN12ModemManager24ModemGsmNetworkInterface17propertiesChangedERK7QStringRK4QMapIS1_8QVariantE@Base 0.0~git20130816
 _ZN12ModemManager24ModemGsmNetworkInterface17registerToNetworkERK7QString@Base 0.0~git20130816
 _ZN12ModemManager24ModemGsmNetworkInterface18allowedModeChangedENS_14ModemInterface11AllowedModeE@Base 0.0~git20130816
 _ZN12ModemManager24ModemGsmNetworkInterface20RegistrationInfoTypeC1Ev@Base 0.0~git20130816
 _ZN12ModemManager24ModemGsmNetworkInterface20RegistrationInfoTypeC2Ev@Base 0.0~git20130816
 _ZN12ModemManager24ModemGsmNetworkInterface20RegistrationInfoTypeD1Ev@Base 0.0~git20130816
 _ZN12ModemManager24ModemGsmNetworkInterface20RegistrationInfoTypeD2Ev@Base 0.0~git20130816
 _ZN12ModemManager24ModemGsmNetworkInterface20signalQualityChangedEj@Base 0.0~git20130816
 _ZN12ModemManager24ModemGsmNetworkInterface23accessTechnologyChangedENS_14ModemInterface16AccessTechnologyE@Base 0.0~git20130816
 _ZN12ModemManager24ModemGsmNetworkInterface23registrationInfoChangedERKNS0_20RegistrationInfoTypeE@Base 0.0~git20130816
 _ZN12ModemManager24ModemGsmNetworkInterface24slotSignalQualityChangedEj@Base 0.0~git20130816
 _ZN12ModemManager24ModemGsmNetworkInterface25onGetSignalQualityArrivedEP23QDBusPendingCallWatcher@Base 0.0~git20130816
 _ZN12ModemManager24ModemGsmNetworkInterface27slotRegistrationInfoChangedEjRK7QStringS3_@Base 0.0~git20130816
 _ZN12ModemManager24ModemGsmNetworkInterface28onGetRegistrationInfoArrivedEP23QDBusPendingCallWatcher@Base 0.0~git20130816
 _ZN12ModemManager24ModemGsmNetworkInterface4scanEv@Base 0.0~git20130816
 _ZN12ModemManager24ModemGsmNetworkInterface6setApnERK7QString@Base 0.0~git20130816
 _ZN12ModemManager24ModemGsmNetworkInterface7getBandEv@Base 0.0~git20130816
 _ZN12ModemManager24ModemGsmNetworkInterface7setBandENS_14ModemInterface4BandE@Base 0.0~git20130816
 _ZN12ModemManager24ModemGsmNetworkInterfaceC1ERK7QStringP7QObject@Base 0.0~git20130816
 _ZN12ModemManager24ModemGsmNetworkInterfaceC2ERK7QStringP7QObject@Base 0.0~git20130816
 _ZN12ModemManager24ModemGsmNetworkInterfaceD0Ev@Base 0.0~git20130816
 _ZN12ModemManager24ModemGsmNetworkInterfaceD1Ev@Base 0.0~git20130816
 _ZN12ModemManager24ModemGsmNetworkInterfaceD2Ev@Base 0.0~git20130816
 _ZN12ModemManager25ModemGsmContactsInterface10addContactERK7QStringS3_@Base 0.0~git20130816
 _ZN12ModemManager25ModemGsmContactsInterface11ContactTypeD1Ev@Base 0.0~git20130816
 _ZN12ModemManager25ModemGsmContactsInterface11ContactTypeD2Ev@Base 0.0~git20130816
 _ZN12ModemManager25ModemGsmContactsInterface11qt_metacallEN11QMetaObject4CallEiPPv@Base 0.0~git20130816
 _ZN12ModemManager25ModemGsmContactsInterface11qt_metacastEPKc@Base 0.0~git20130816
 _ZN12ModemManager25ModemGsmContactsInterface13deleteContactEi@Base 0.0~git20130816
 _ZN12ModemManager25ModemGsmContactsInterface16staticMetaObjectE@Base 0.0~git20130816
 _ZN12ModemManager25ModemGsmContactsInterface3getEi@Base 0.0~git20130816
 _ZN12ModemManager25ModemGsmContactsInterface4findERK7QString@Base 0.0~git20130816
 _ZN12ModemManager25ModemGsmContactsInterface4listEv@Base 0.0~git20130816
 _ZN12ModemManager25ModemGsmContactsInterface8getCountEv@Base 0.0~git20130816
 _ZN12ModemManager25ModemGsmContactsInterfaceC1ERK7QStringP7QObject@Base 0.0~git20130816
 _ZN12ModemManager25ModemGsmContactsInterfaceC2ERK7QStringP7QObject@Base 0.0~git20130816
 _ZN12ModemManager25ModemGsmContactsInterfaceD0Ev@Base 0.0~git20130816
 _ZN12ModemManager25ModemGsmContactsInterfaceD1Ev@Base 0.0~git20130816
 _ZN12ModemManager25ModemGsmContactsInterfaceD2Ev@Base 0.0~git20130816
 _ZN12ModemManager8Notifier10modemAddedERK7QString@Base 0.0~git20130816
 _ZN12ModemManager8Notifier11qt_metacallEN11QMetaObject4CallEiPPv@Base 0.0~git20130816
 _ZN12ModemManager8Notifier11qt_metacastEPKc@Base 0.0~git20130816
 _ZN12ModemManager8Notifier12modemRemovedERK7QString@Base 0.0~git20130816
 _ZN12ModemManager8Notifier15serviceAppearedEv@Base 0.0~git20130816
 _ZN12ModemManager8Notifier16staticMetaObjectE@Base 0.0~git20130816
 _ZN12ModemManager8Notifier18serviceDisappearedEv@Base 0.0~git20130816
 _ZN12ModemManager8NotifierD0Ev@Base 0.0~git20130816
 _ZN12ModemManager8NotifierD1Ev@Base 0.0~git20130816
 _ZN12ModemManager8NotifierD2Ev@Base 0.0~git20130816
 _ZN12ModemManager8notifierEv@Base 0.0~git20130816
 (optional=templinst|arch=s390x)_ZN14QSharedPointerIN12ModemManager14ModemInterfaceEED1Ev@Base 0.5.1
 (optional=templinst|arch=s390x)_ZN14QSharedPointerIN12ModemManager14ModemInterfaceEED2Ev@Base 0.5.1
 (optional=templinst|arch=amd64)_ZN15QtSharedPointer16ExternalRefCountIN12ModemManager14ModemInterfaceEE5derefEPNS_20ExternalRefCountDataEPS2_@Base 0.5.0
 _ZN15QtSharedPointer20ExternalRefCountData7destroyEv@Base 0.0~git20130816
 _ZN15QtSharedPointer20ExternalRefCountDataD0Ev@Base 0.0~git20130816
 _ZN15QtSharedPointer20ExternalRefCountDataD1Ev@Base 0.0~git20130816
 _ZN15QtSharedPointer20ExternalRefCountDataD2Ev@Base 0.0~git20130816
 _ZN21MmCleanUpGlobalStaticD1Ev@Base 0.0~git20130816
 _ZN21MmCleanUpGlobalStaticD2Ev@Base 0.0~git20130816
 _ZN21ModemInterfacePrivateC1ERK7QStringP7QObject@Base 0.0~git20130816
 _ZN21ModemInterfacePrivateC2ERK7QStringP7QObject@Base 0.0~git20130816
 _ZN21ModemInterfacePrivateD0Ev@Base 0.0~git20130816
 _ZN21ModemInterfacePrivateD1Ev@Base 0.0~git20130816
 _ZN21ModemInterfacePrivateD2Ev@Base 0.0~git20130816
 _ZN25ModemCdmaInterfacePrivateC1ERK7QStringP7QObject@Base 0.0~git20130816
 _ZN25ModemCdmaInterfacePrivateC2ERK7QStringP7QObject@Base 0.0~git20130816
 _ZN25ModemCdmaInterfacePrivateD0Ev@Base 0.0~git20130816
 _ZN25ModemCdmaInterfacePrivateD1Ev@Base 0.0~git20130816
 _ZN25ModemCdmaInterfacePrivateD2Ev@Base 0.0~git20130816
 _ZN27ModemGsmHsoInterfacePrivateC1ERK7QStringP7QObject@Base 0.0~git20130816
 _ZN27ModemGsmHsoInterfacePrivateC2ERK7QStringP7QObject@Base 0.0~git20130816
 _ZN27ModemGsmHsoInterfacePrivateD0Ev@Base 0.0~git20130816
 _ZN27ModemGsmHsoInterfacePrivateD1Ev@Base 0.0~git20130816
 _ZN27ModemGsmHsoInterfacePrivateD2Ev@Base 0.0~git20130816
 _ZN27ModemGsmSmsInterfacePrivateC1ERK7QStringP7QObject@Base 0.0~git20130816
 _ZN27ModemGsmSmsInterfacePrivateC2ERK7QStringP7QObject@Base 0.0~git20130816
 _ZN27ModemGsmSmsInterfacePrivateD0Ev@Base 0.0~git20130816
 _ZN27ModemGsmSmsInterfacePrivateD1Ev@Base 0.0~git20130816
 _ZN27ModemGsmSmsInterfacePrivateD2Ev@Base 0.0~git20130816
 _ZN28ModemGsmCardInterfacePrivateC1ERK7QStringP7QObject@Base 0.0~git20130816
 _ZN28ModemGsmCardInterfacePrivateC2ERK7QStringP7QObject@Base 0.0~git20130816
 _ZN28ModemGsmCardInterfacePrivateD0Ev@Base 0.0~git20130816
 _ZN28ModemGsmCardInterfacePrivateD1Ev@Base 0.0~git20130816
 _ZN28ModemGsmCardInterfacePrivateD2Ev@Base 0.0~git20130816
 _ZN28ModemGsmUssdInterfacePrivateC1ERK7QStringP7QObject@Base 0.0~git20130816
 _ZN28ModemGsmUssdInterfacePrivateC2ERK7QStringP7QObject@Base 0.0~git20130816
 _ZN28ModemGsmUssdInterfacePrivateD0Ev@Base 0.0~git20130816
 _ZN28ModemGsmUssdInterfacePrivateD1Ev@Base 0.0~git20130816
 _ZN28ModemGsmUssdInterfacePrivateD2Ev@Base 0.0~git20130816
 _ZN29ModemLocationInterfacePrivateC1ERK7QStringP7QObject@Base 0.0~git20130816
 _ZN29ModemLocationInterfacePrivateC2ERK7QStringP7QObject@Base 0.0~git20130816
 _ZN29ModemLocationInterfacePrivateD0Ev@Base 0.0~git20130816
 _ZN29ModemLocationInterfacePrivateD1Ev@Base 0.0~git20130816
 _ZN29ModemLocationInterfacePrivateD2Ev@Base 0.0~git20130816
 _ZN31ModemGsmNetworkInterfacePrivateC1ERK7QStringP7QObject@Base 0.0~git20130816
 _ZN31ModemGsmNetworkInterfacePrivateC2ERK7QStringP7QObject@Base 0.0~git20130816
 _ZN31ModemGsmNetworkInterfacePrivateD0Ev@Base 0.0~git20130816
 _ZN31ModemGsmNetworkInterfacePrivateD1Ev@Base 0.0~git20130816
 _ZN31ModemGsmNetworkInterfacePrivateD2Ev@Base 0.0~git20130816
 _ZN32ModemGsmContactsInterfacePrivateC1ERK7QStringP7QObject@Base 0.0~git20130816
 _ZN32ModemGsmContactsInterfacePrivateC2ERK7QStringP7QObject@Base 0.0~git20130816
 _ZN32ModemGsmContactsInterfacePrivateD0Ev@Base 0.0~git20130816
 _ZN32ModemGsmContactsInterfacePrivateD1Ev@Base 0.0~git20130816
 _ZN32ModemGsmContactsInterfacePrivateD2Ev@Base 0.0~git20130816
 _ZN35OrgFreedesktopModemManagerInterface11DeviceAddedERK15QDBusObjectPath@Base 0.0~git20130816
 _ZN35OrgFreedesktopModemManagerInterface11qt_metacallEN11QMetaObject4CallEiPPv@Base 0.0~git20130816
 _ZN35OrgFreedesktopModemManagerInterface11qt_metacastEPKc@Base 0.0~git20130816
 _ZN35OrgFreedesktopModemManagerInterface13DeviceRemovedERK15QDBusObjectPath@Base 0.0~git20130816
 _ZN35OrgFreedesktopModemManagerInterface16staticMetaObjectE@Base 0.0~git20130816
 _ZN35OrgFreedesktopModemManagerInterfaceC1ERK7QStringS2_RK15QDBusConnectionP7QObject@Base 0.0~git20130816
 _ZN35OrgFreedesktopModemManagerInterfaceC2ERK7QStringS2_RK15QDBusConnectionP7QObject@Base 0.0~git20130816
 _ZN35OrgFreedesktopModemManagerInterfaceD0Ev@Base 0.0~git20130816
 _ZN35OrgFreedesktopModemManagerInterfaceD1Ev@Base 0.0~git20130816
 _ZN35OrgFreedesktopModemManagerInterfaceD2Ev@Base 0.0~git20130816
 _ZN40OrgFreedesktopModemManagerModemInterface11qt_metacallEN11QMetaObject4CallEiPPv@Base 0.0~git20130816
 _ZN40OrgFreedesktopModemManagerModemInterface11qt_metacastEPKc@Base 0.0~git20130816
 _ZN40OrgFreedesktopModemManagerModemInterface16staticMetaObjectE@Base 0.0~git20130816
 _ZN40OrgFreedesktopModemManagerModemInterfaceC1ERK7QStringS2_RK15QDBusConnectionP7QObject@Base 0.0~git20130816
 _ZN40OrgFreedesktopModemManagerModemInterfaceC2ERK7QStringS2_RK15QDBusConnectionP7QObject@Base 0.0~git20130816
 _ZN40OrgFreedesktopModemManagerModemInterfaceD0Ev@Base 0.0~git20130816
 _ZN40OrgFreedesktopModemManagerModemInterfaceD1Ev@Base 0.0~git20130816
 _ZN40OrgFreedesktopModemManagerModemInterfaceD2Ev@Base 0.0~git20130816
 _ZN44OrgFreedesktopModemManagerModemCdmaInterface11qt_metacallEN11QMetaObject4CallEiPPv@Base 0.0~git20130816
 _ZN44OrgFreedesktopModemManagerModemCdmaInterface11qt_metacastEPKc@Base 0.0~git20130816
 _ZN44OrgFreedesktopModemManagerModemCdmaInterface13SignalQualityEj@Base 0.0~git20130816
 _ZN44OrgFreedesktopModemManagerModemCdmaInterface16staticMetaObjectE@Base 0.0~git20130816
 _ZN44OrgFreedesktopModemManagerModemCdmaInterface24RegistrationStateChangedEjj@Base 0.0~git20130816
 _ZN44OrgFreedesktopModemManagerModemCdmaInterfaceC1ERK7QStringS2_RK15QDBusConnectionP7QObject@Base 0.0~git20130816
 _ZN44OrgFreedesktopModemManagerModemCdmaInterfaceC2ERK7QStringS2_RK15QDBusConnectionP7QObject@Base 0.0~git20130816
 _ZN44OrgFreedesktopModemManagerModemCdmaInterfaceD0Ev@Base 0.0~git20130816
 _ZN44OrgFreedesktopModemManagerModemCdmaInterfaceD1Ev@Base 0.0~git20130816
 _ZN44OrgFreedesktopModemManagerModemCdmaInterfaceD2Ev@Base 0.0~git20130816
 _ZN46OrgFreedesktopModemManagerModemGsmHsoInterface11qt_metacallEN11QMetaObject4CallEiPPv@Base 0.0~git20130816
 _ZN46OrgFreedesktopModemManagerModemGsmHsoInterface11qt_metacastEPKc@Base 0.0~git20130816
 _ZN46OrgFreedesktopModemManagerModemGsmHsoInterface16staticMetaObjectE@Base 0.0~git20130816
 _ZN46OrgFreedesktopModemManagerModemGsmHsoInterfaceC1ERK7QStringS2_RK15QDBusConnectionP7QObject@Base 0.0~git20130816
 _ZN46OrgFreedesktopModemManagerModemGsmHsoInterfaceC2ERK7QStringS2_RK15QDBusConnectionP7QObject@Base 0.0~git20130816
 _ZN46OrgFreedesktopModemManagerModemGsmHsoInterfaceD0Ev@Base 0.0~git20130816
 _ZN46OrgFreedesktopModemManagerModemGsmHsoInterfaceD1Ev@Base 0.0~git20130816
 _ZN46OrgFreedesktopModemManagerModemGsmHsoInterfaceD2Ev@Base 0.0~git20130816
 _ZN46OrgFreedesktopModemManagerModemGsmSMSInterface11SmsReceivedEjb@Base 0.0~git20130816
 _ZN46OrgFreedesktopModemManagerModemGsmSMSInterface11qt_metacallEN11QMetaObject4CallEiPPv@Base 0.0~git20130816
 _ZN46OrgFreedesktopModemManagerModemGsmSMSInterface11qt_metacastEPKc@Base 0.0~git20130816
 _ZN46OrgFreedesktopModemManagerModemGsmSMSInterface16staticMetaObjectE@Base 0.0~git20130816
 _ZN46OrgFreedesktopModemManagerModemGsmSMSInterface9CompletedEjb@Base 0.0~git20130816
 _ZN46OrgFreedesktopModemManagerModemGsmSMSInterfaceC1ERK7QStringS2_RK15QDBusConnectionP7QObject@Base 0.0~git20130816
 _ZN46OrgFreedesktopModemManagerModemGsmSMSInterfaceC2ERK7QStringS2_RK15QDBusConnectionP7QObject@Base 0.0~git20130816
 _ZN46OrgFreedesktopModemManagerModemGsmSMSInterfaceD0Ev@Base 0.0~git20130816
 _ZN46OrgFreedesktopModemManagerModemGsmSMSInterfaceD1Ev@Base 0.0~git20130816
 _ZN46OrgFreedesktopModemManagerModemGsmSMSInterfaceD2Ev@Base 0.0~git20130816
 _ZN46OrgFreedesktopModemManagerModemSimpleInterface11qt_metacallEN11QMetaObject4CallEiPPv@Base 0.0~git20130816
 _ZN46OrgFreedesktopModemManagerModemSimpleInterface11qt_metacastEPKc@Base 0.0~git20130816
 _ZN46OrgFreedesktopModemManagerModemSimpleInterface16staticMetaObjectE@Base 0.0~git20130816
 _ZN46OrgFreedesktopModemManagerModemSimpleInterfaceC1ERK7QStringS2_RK15QDBusConnectionP7QObject@Base 0.0~git20130816
 _ZN46OrgFreedesktopModemManagerModemSimpleInterfaceC2ERK7QStringS2_RK15QDBusConnectionP7QObject@Base 0.0~git20130816
 _ZN46OrgFreedesktopModemManagerModemSimpleInterfaceD0Ev@Base 0.0~git20130816
 _ZN46OrgFreedesktopModemManagerModemSimpleInterfaceD1Ev@Base 0.0~git20130816
 _ZN46OrgFreedesktopModemManagerModemSimpleInterfaceD2Ev@Base 0.0~git20130816
 _ZN47OrgFreedesktopModemManagerModemGsmCardInterface11qt_metacallEN11QMetaObject4CallEiPPv@Base 0.0~git20130816
 _ZN47OrgFreedesktopModemManagerModemGsmCardInterface11qt_metacastEPKc@Base 0.0~git20130816
 _ZN47OrgFreedesktopModemManagerModemGsmCardInterface16staticMetaObjectE@Base 0.0~git20130816
 _ZN47OrgFreedesktopModemManagerModemGsmCardInterfaceC1ERK7QStringS2_RK15QDBusConnectionP7QObject@Base 0.0~git20130816
 _ZN47OrgFreedesktopModemManagerModemGsmCardInterfaceC2ERK7QStringS2_RK15QDBusConnectionP7QObject@Base 0.0~git20130816
 _ZN47OrgFreedesktopModemManagerModemGsmCardInterfaceD0Ev@Base 0.0~git20130816
 _ZN47OrgFreedesktopModemManagerModemGsmCardInterfaceD1Ev@Base 0.0~git20130816
 _ZN47OrgFreedesktopModemManagerModemGsmCardInterfaceD2Ev@Base 0.0~git20130816
 _ZN47OrgFreedesktopModemManagerModemGsmUssdInterface11qt_metacallEN11QMetaObject4CallEiPPv@Base 0.0~git20130816
 _ZN47OrgFreedesktopModemManagerModemGsmUssdInterface11qt_metacastEPKc@Base 0.0~git20130816
 _ZN47OrgFreedesktopModemManagerModemGsmUssdInterface16staticMetaObjectE@Base 0.0~git20130816
 _ZN47OrgFreedesktopModemManagerModemGsmUssdInterfaceC1ERK7QStringS2_RK15QDBusConnectionP7QObject@Base 0.0~git20130816
 _ZN47OrgFreedesktopModemManagerModemGsmUssdInterfaceC2ERK7QStringS2_RK15QDBusConnectionP7QObject@Base 0.0~git20130816
 _ZN47OrgFreedesktopModemManagerModemGsmUssdInterfaceD0Ev@Base 0.0~git20130816
 _ZN47OrgFreedesktopModemManagerModemGsmUssdInterfaceD1Ev@Base 0.0~git20130816
 _ZN47OrgFreedesktopModemManagerModemGsmUssdInterfaceD2Ev@Base 0.0~git20130816
 _ZN48OrgFreedesktopModemManagerModemLocationInterface11qt_metacallEN11QMetaObject4CallEiPPv@Base 0.0~git20130816
 _ZN48OrgFreedesktopModemManagerModemLocationInterface11qt_metacastEPKc@Base 0.0~git20130816
 _ZN48OrgFreedesktopModemManagerModemLocationInterface16staticMetaObjectE@Base 0.0~git20130816
 _ZN48OrgFreedesktopModemManagerModemLocationInterfaceC1ERK7QStringS2_RK15QDBusConnectionP7QObject@Base 0.0~git20130816
 _ZN48OrgFreedesktopModemManagerModemLocationInterfaceC2ERK7QStringS2_RK15QDBusConnectionP7QObject@Base 0.0~git20130816
 _ZN48OrgFreedesktopModemManagerModemLocationInterfaceD0Ev@Base 0.0~git20130816
 _ZN48OrgFreedesktopModemManagerModemLocationInterfaceD1Ev@Base 0.0~git20130816
 _ZN48OrgFreedesktopModemManagerModemLocationInterfaceD2Ev@Base 0.0~git20130816
 (optional=templinst)_ZN4QMapI7QString8QVariantE13detach_helperEv@Base 0.0~git20130816
 (optional=templinst)_ZN4QMapI7QString8QVariantED1Ev@Base 0.0~git20130816
 (optional=templinst)_ZN4QMapI7QString8QVariantED2Ev@Base 0.0~git20130816
 (optional=templinst)_ZN4QMapI7QStringS0_E13detach_helperEv@Base 0.0~git20130816
 (optional=templinst)_ZN4QMapI7QStringS0_ED1Ev@Base 0.0~git20130816
 (optional=templinst)_ZN4QMapI7QStringS0_ED2Ev@Base 0.0~git20130816
 (optional=templinst)_ZN4QMapI7QStringS_IN12ModemManager14ModemInterface16GsmInterfaceTypeE14QSharedPointerIS2_EEE13detach_helperEv@Base 0.0~git20130816
 (optional=templinst)_ZN4QMapI7QStringS_IN12ModemManager14ModemInterface16GsmInterfaceTypeE14QSharedPointerIS2_EEE6removeERKS0_@Base 0.0~git20130816
 (optional=templinst)_ZN4QMapI7QStringS_IN12ModemManager14ModemInterface16GsmInterfaceTypeE14QSharedPointerIS2_EEED1Ev@Base 0.0~git20130816
 (optional=templinst)_ZN4QMapI7QStringS_IN12ModemManager14ModemInterface16GsmInterfaceTypeE14QSharedPointerIS2_EEED2Ev@Base 0.0~git20130816
 (optional=templinst)_ZN4QMapIN12ModemManager14ModemInterface16GsmInterfaceTypeE14QSharedPointerIS1_EE13detach_helperEv@Base 0.0~git20130816
 (optional=templinst)_ZN4QMapIN12ModemManager14ModemInterface16GsmInterfaceTypeE14QSharedPointerIS1_EED1Ev@Base 0.0~git20130816
 (optional=templinst)_ZN4QMapIN12ModemManager14ModemInterface16GsmInterfaceTypeE14QSharedPointerIS1_EED2Ev@Base 0.0~git20130816
 (optional=templinst)_ZN4QMapIN12ModemManager22ModemLocationInterface10CapabilityE8QVariantE13detach_helperEv@Base 0.0~git20130816
 _ZN50OrgFreedesktopModemManagerModemGsmNetworkInterface11qt_metacallEN11QMetaObject4CallEiPPv@Base 0.0~git20130816
 _ZN50OrgFreedesktopModemManagerModemGsmNetworkInterface11qt_metacastEPKc@Base 0.0~git20130816
 _ZN50OrgFreedesktopModemManagerModemGsmNetworkInterface13SignalQualityEj@Base 0.0~git20130816
 _ZN50OrgFreedesktopModemManagerModemGsmNetworkInterface16RegistrationInfoEjRK7QStringS2_@Base 0.0~git20130816
 _ZN50OrgFreedesktopModemManagerModemGsmNetworkInterface16staticMetaObjectE@Base 0.0~git20130816
 _ZN50OrgFreedesktopModemManagerModemGsmNetworkInterfaceC1ERK7QStringS2_RK15QDBusConnectionP7QObject@Base 0.0~git20130816
 _ZN50OrgFreedesktopModemManagerModemGsmNetworkInterfaceC2ERK7QStringS2_RK15QDBusConnectionP7QObject@Base 0.0~git20130816
 _ZN50OrgFreedesktopModemManagerModemGsmNetworkInterfaceD0Ev@Base 0.0~git20130816
 _ZN50OrgFreedesktopModemManagerModemGsmNetworkInterfaceD1Ev@Base 0.0~git20130816
 _ZN50OrgFreedesktopModemManagerModemGsmNetworkInterfaceD2Ev@Base 0.0~git20130816
 _ZN51OrgFreedesktopModemManagerModemGsmContactsInterface11qt_metacallEN11QMetaObject4CallEiPPv@Base 0.0~git20130816
 _ZN51OrgFreedesktopModemManagerModemGsmContactsInterface11qt_metacastEPKc@Base 0.0~git20130816
 _ZN51OrgFreedesktopModemManagerModemGsmContactsInterface16staticMetaObjectE@Base 0.0~git20130816
 _ZN51OrgFreedesktopModemManagerModemGsmContactsInterfaceC1ERK7QStringS2_RK15QDBusConnectionP7QObject@Base 0.0~git20130816
 _ZN51OrgFreedesktopModemManagerModemGsmContactsInterfaceC2ERK7QStringS2_RK15QDBusConnectionP7QObject@Base 0.0~git20130816
 _ZN51OrgFreedesktopModemManagerModemGsmContactsInterfaceD0Ev@Base 0.0~git20130816
 _ZN51OrgFreedesktopModemManagerModemGsmContactsInterfaceD1Ev@Base 0.0~git20130816
 _ZN51OrgFreedesktopModemManagerModemGsmContactsInterfaceD2Ev@Base 0.0~git20130816
 (optional=templinst)_ZN5QListI14QSharedPointerIN12ModemManager14ModemInterfaceEEE18detach_helper_growEii@Base 0.0~git20130816
 (optional=templinst)_ZN5QListI14QSharedPointerIN12ModemManager14ModemInterfaceEEE6appendERKS3_@Base 0.0~git20130816
 (optional=templinst|arch=amd64)_ZN5QListI14QSharedPointerIN12ModemManager14ModemInterfaceEEED1Ev@Base 0.0~git20130816
 (optional=templinst|arch=amd64)_ZN5QListI14QSharedPointerIN12ModemManager14ModemInterfaceEEED2Ev@Base 0.0~git20130816
 (optional=templinst)_ZN5QListI15QDBusObjectPathE13detach_helperEi@Base 0.0~git20130816
 (optional=templinst)_ZN5QListI15QDBusObjectPathE18detach_helper_growEii@Base 0.0~git20130816
 (optional=templinst|arch=amd64)_ZN5QListI15QDBusObjectPathE5clearEv@Base 0.0~git20130816
 (optional=templinst)_ZN5QListI15QDBusObjectPathE6appendERKS0_@Base 0.0~git20130816
 (optional=templinst)_ZN5QListI15QDBusObjectPathED1Ev@Base 0.0~git20130816
 (optional=templinst)_ZN5QListI15QDBusObjectPathED2Ev@Base 0.0~git20130816
 (optional=templinst)_ZN5QListI4QMapI7QString8QVariantEE13detach_helperEi@Base 0.0~git20130816
 (optional=templinst)_ZN5QListI4QMapI7QString8QVariantEE18detach_helper_growEii@Base 0.5.0
 (optional=templinst)_ZN5QListI4QMapI7QString8QVariantEE5clearEv@Base 0.5.0
 (optional=templinst)_ZN5QListI4QMapI7QString8QVariantEE6appendERKS3_@Base 0.5.0
 (optional=templinst)_ZN5QListI4QMapI7QString8QVariantEED1Ev@Base 0.0~git20130816
 (optional=templinst)_ZN5QListI4QMapI7QString8QVariantEED2Ev@Base 0.0~git20130816
 (optional=templinst)_ZN5QListI4QMapI7QString8QVariantEEpLERKS4_@Base 0.5.0
 (optional=templinst)_ZN5QListI4QMapI7QStringS1_EE13detach_helperEi@Base 0.0~git20130816
 (optional=templinst)_ZN5QListI4QMapI7QStringS1_EE18detach_helper_growEii@Base 0.0~git20130816
 (optional=templinst)_ZN5QListI4QMapI7QStringS1_EE5clearEv@Base 0.0~git20130816
 (optional=templinst)_ZN5QListI4QMapI7QStringS1_EE6appendERKS2_@Base 0.0~git20130816
 (optional=templinst)_ZN5QListI4QMapI7QStringS1_EED1Ev@Base 0.0~git20130816
 (optional=templinst)_ZN5QListI4QMapI7QStringS1_EED2Ev@Base 0.0~git20130816
 (optional=templinst)_ZN5QListI4QMapIN12ModemManager22ModemLocationInterface10CapabilityE8QVariantEE13detach_helperEi@Base 0.0~git20130816
 (optional=templinst)_ZN5QListI4QMapIN12ModemManager22ModemLocationInterface10CapabilityE8QVariantEED1Ev@Base 0.0~git20130816
 (optional=templinst)_ZN5QListI4QMapIN12ModemManager22ModemLocationInterface10CapabilityE8QVariantEED2Ev@Base 0.0~git20130816
 (optional=templinst)_ZN5QListI7QStringE13detach_helperEi@Base 0.0~git20130816
 (optional=templinst)_ZN5QListI7QStringE18detach_helper_growEii@Base 0.0~git20130816
 (optional=templinst)_ZN5QListI7QStringE6appendERKS0_@Base 0.0~git20130816
 (optional=templinst)_ZN5QListI7QStringED1Ev@Base 0.0~git20130816
 (optional=templinst)_ZN5QListI7QStringED2Ev@Base 0.0~git20130816
 (optional=templinst)_ZN5QListI8QVariantE18detach_helper_growEii@Base 0.0~git20130816
 (optional=templinst)_ZN5QListI8QVariantE6appendERKS0_@Base 0.0~git20130816
 (optional=templinst)_ZN5QListI8QVariantED1Ev@Base 0.0~git20130816
 (optional=templinst)_ZN5QListI8QVariantED2Ev@Base 0.0~git20130816
 (optional=templinst)_ZN5QListIN12ModemManager25ModemGsmContactsInterface11ContactTypeEE13detach_helperEi@Base 0.5.0
 (optional=templinst)_ZN5QListIN12ModemManager25ModemGsmContactsInterface11ContactTypeEED1Ev@Base 0.0~git20130816
 (optional=templinst)_ZN5QListIN12ModemManager25ModemGsmContactsInterface11ContactTypeEED2Ev@Base 0.0~git20130816
 _ZN6QDebugD1Ev@Base 0.0~git20130816
 _ZN6QDebugD2Ev@Base 0.0~git20130816
 _ZN7QStringD1Ev@Base 0.0~git20130816
 _ZN7QStringD2Ev@Base 0.0~git20130816
 _ZNK12ModemManager14ModemInterface10metaObjectEv@Base 0.0~git20130816
 _ZNK12ModemManager14ModemInterface12masterDeviceEv@Base 0.0~git20130816
 _ZNK12ModemManager14ModemInterface14unlockRequiredEv@Base 0.0~git20130816
 _ZNK12ModemManager14ModemInterface3udiEv@Base 0.0~git20130816
 _ZNK12ModemManager14ModemInterface4typeEv@Base 0.0~git20130816
 _ZNK12ModemManager14ModemInterface6deviceEv@Base 0.0~git20130816
 _ZNK12ModemManager14ModemInterface6driverEv@Base 0.0~git20130816
 _ZNK12ModemManager14ModemInterface7enabledEv@Base 0.0~git20130816
 _ZNK12ModemManager14ModemInterface8ipMethodEv@Base 0.0~git20130816
 _ZNK12ModemManager18ModemCdmaInterface10metaObjectEv@Base 0.0~git20130816
 _ZNK12ModemManager19ModemManagerPrivate10metaObjectEv@Base 0.0~git20130816
 _ZNK12ModemManager20ModemGsmHsoInterface10metaObjectEv@Base 0.0~git20130816
 _ZNK12ModemManager20ModemGsmSmsInterface10metaObjectEv@Base 0.0~git20130816
 _ZNK12ModemManager21ModemGsmCardInterface10metaObjectEv@Base 0.0~git20130816
 _ZNK12ModemManager21ModemGsmCardInterface13simIdentifierEv@Base 0.5.1
 _ZNK12ModemManager21ModemGsmCardInterface17getSupportedBandsEv@Base 0.0~git20130816
 _ZNK12ModemManager21ModemGsmCardInterface17getSupportedModesEv@Base 0.0~git20130816
 _ZNK12ModemManager21ModemGsmUssdInterface10metaObjectEv@Base 0.0~git20130816
 _ZNK12ModemManager22ModemLocationInterface10metaObjectEv@Base 0.0~git20130816
 _ZNK12ModemManager22ModemLocationInterface13getCapabilityEv@Base 0.0~git20130816
 _ZNK12ModemManager22ModemLocationInterface15signalsLocationEv@Base 0.0~git20130816
 _ZNK12ModemManager22ModemLocationInterface7enabledEv@Base 0.0~git20130816
 _ZNK12ModemManager24ModemGsmNetworkInterface10metaObjectEv@Base 0.0~git20130816
 _ZNK12ModemManager24ModemGsmNetworkInterface14getAllowedModeEv@Base 0.0~git20130816
 _ZNK12ModemManager24ModemGsmNetworkInterface16getSignalQualityEv@Base 0.0~git20130816
 _ZNK12ModemManager24ModemGsmNetworkInterface19getAccessTechnologyEv@Base 0.0~git20130816
 _ZNK12ModemManager24ModemGsmNetworkInterface19getRegistrationInfoEv@Base 0.0~git20130816
 _ZNK12ModemManager25ModemGsmContactsInterface10metaObjectEv@Base 0.0~git20130816
 _ZNK12ModemManager8Notifier10metaObjectEv@Base 0.0~git20130816
 _ZNK35OrgFreedesktopModemManagerInterface10metaObjectEv@Base 0.0~git20130816
 _ZNK40OrgFreedesktopModemManagerModemInterface10metaObjectEv@Base 0.0~git20130816
 _ZNK44OrgFreedesktopModemManagerModemCdmaInterface10metaObjectEv@Base 0.0~git20130816
 _ZNK46OrgFreedesktopModemManagerModemGsmHsoInterface10metaObjectEv@Base 0.0~git20130816
 _ZNK46OrgFreedesktopModemManagerModemGsmSMSInterface10metaObjectEv@Base 0.0~git20130816
 _ZNK46OrgFreedesktopModemManagerModemSimpleInterface10metaObjectEv@Base 0.0~git20130816
 _ZNK47OrgFreedesktopModemManagerModemGsmCardInterface10metaObjectEv@Base 0.0~git20130816
 _ZNK47OrgFreedesktopModemManagerModemGsmUssdInterface10metaObjectEv@Base 0.0~git20130816
 _ZNK48OrgFreedesktopModemManagerModemLocationInterface10metaObjectEv@Base 0.0~git20130816
 (optional=templinst|arch=s390x)_ZNK4QMapI7QString8QVariantE4keysEv@Base 0.5.1
 _ZNK50OrgFreedesktopModemManagerModemGsmNetworkInterface10metaObjectEv@Base 0.0~git20130816
 _ZNK51OrgFreedesktopModemManagerModemGsmContactsInterface10metaObjectEv@Base 0.0~git20130816
 _ZTI21ModemInterfacePrivate@Base 0.0~git20130816
 _ZTI25ModemCdmaInterfacePrivate@Base 0.0~git20130816
 _ZTI27ModemGsmHsoInterfacePrivate@Base 0.0~git20130816
 _ZTI27ModemGsmSmsInterfacePrivate@Base 0.0~git20130816
 _ZTI28ModemGsmCardInterfacePrivate@Base 0.0~git20130816
 _ZTI28ModemGsmUssdInterfacePrivate@Base 0.0~git20130816
 _ZTI29ModemLocationInterfacePrivate@Base 0.0~git20130816
 _ZTI31ModemGsmNetworkInterfacePrivate@Base 0.0~git20130816
 _ZTI32ModemGsmContactsInterfacePrivate@Base 0.0~git20130816
 _ZTI35OrgFreedesktopModemManagerInterface@Base 0.0~git20130816
 _ZTI40OrgFreedesktopModemManagerModemInterface@Base 0.0~git20130816
 _ZTI44OrgFreedesktopModemManagerModemCdmaInterface@Base 0.0~git20130816
 _ZTI46OrgFreedesktopModemManagerModemGsmHsoInterface@Base 0.0~git20130816
 _ZTI46OrgFreedesktopModemManagerModemGsmSMSInterface@Base 0.0~git20130816
 _ZTI46OrgFreedesktopModemManagerModemSimpleInterface@Base 0.0~git20130816
 _ZTI47OrgFreedesktopModemManagerModemGsmCardInterface@Base 0.0~git20130816
 _ZTI47OrgFreedesktopModemManagerModemGsmUssdInterface@Base 0.0~git20130816
 _ZTI48OrgFreedesktopModemManagerModemLocationInterface@Base 0.0~git20130816
 _ZTI50OrgFreedesktopModemManagerModemGsmNetworkInterface@Base 0.0~git20130816
 _ZTI51OrgFreedesktopModemManagerModemGsmContactsInterface@Base 0.0~git20130816
 _ZTIN12ModemManager14ModemInterfaceE@Base 0.0~git20130816
 _ZTIN12ModemManager18ModemCdmaInterfaceE@Base 0.0~git20130816
 _ZTIN12ModemManager19ModemManagerPrivateE@Base 0.0~git20130816
 _ZTIN12ModemManager20ModemGsmHsoInterfaceE@Base 0.0~git20130816
 _ZTIN12ModemManager20ModemGsmSmsInterfaceE@Base 0.0~git20130816
 _ZTIN12ModemManager21ModemGsmCardInterfaceE@Base 0.0~git20130816
 _ZTIN12ModemManager21ModemGsmUssdInterfaceE@Base 0.0~git20130816
 _ZTIN12ModemManager22ModemLocationInterfaceE@Base 0.0~git20130816
 _ZTIN12ModemManager24ModemGsmNetworkInterfaceE@Base 0.0~git20130816
 _ZTIN12ModemManager25ModemGsmContactsInterfaceE@Base 0.0~git20130816
 _ZTIN12ModemManager8NotifierE@Base 0.0~git20130816
 _ZTIN15QtSharedPointer20ExternalRefCountDataE@Base 0.0~git20130816
 _ZTS21ModemInterfacePrivate@Base 0.0~git20130816
 _ZTS25ModemCdmaInterfacePrivate@Base 0.0~git20130816
 _ZTS27ModemGsmHsoInterfacePrivate@Base 0.0~git20130816
 _ZTS27ModemGsmSmsInterfacePrivate@Base 0.0~git20130816
 _ZTS28ModemGsmCardInterfacePrivate@Base 0.0~git20130816
 _ZTS28ModemGsmUssdInterfacePrivate@Base 0.0~git20130816
 _ZTS29ModemLocationInterfacePrivate@Base 0.0~git20130816
 _ZTS31ModemGsmNetworkInterfacePrivate@Base 0.0~git20130816
 _ZTS32ModemGsmContactsInterfacePrivate@Base 0.0~git20130816
 _ZTS35OrgFreedesktopModemManagerInterface@Base 0.0~git20130816
 _ZTS40OrgFreedesktopModemManagerModemInterface@Base 0.0~git20130816
 _ZTS44OrgFreedesktopModemManagerModemCdmaInterface@Base 0.0~git20130816
 _ZTS46OrgFreedesktopModemManagerModemGsmHsoInterface@Base 0.0~git20130816
 _ZTS46OrgFreedesktopModemManagerModemGsmSMSInterface@Base 0.0~git20130816
 _ZTS46OrgFreedesktopModemManagerModemSimpleInterface@Base 0.0~git20130816
 _ZTS47OrgFreedesktopModemManagerModemGsmCardInterface@Base 0.0~git20130816
 _ZTS47OrgFreedesktopModemManagerModemGsmUssdInterface@Base 0.0~git20130816
 _ZTS48OrgFreedesktopModemManagerModemLocationInterface@Base 0.0~git20130816
 _ZTS50OrgFreedesktopModemManagerModemGsmNetworkInterface@Base 0.0~git20130816
 _ZTS51OrgFreedesktopModemManagerModemGsmContactsInterface@Base 0.0~git20130816
 _ZTSN12ModemManager14ModemInterfaceE@Base 0.0~git20130816
 _ZTSN12ModemManager18ModemCdmaInterfaceE@Base 0.0~git20130816
 _ZTSN12ModemManager19ModemManagerPrivateE@Base 0.0~git20130816
 _ZTSN12ModemManager20ModemGsmHsoInterfaceE@Base 0.0~git20130816
 _ZTSN12ModemManager20ModemGsmSmsInterfaceE@Base 0.0~git20130816
 _ZTSN12ModemManager21ModemGsmCardInterfaceE@Base 0.0~git20130816
 _ZTSN12ModemManager21ModemGsmUssdInterfaceE@Base 0.0~git20130816
 _ZTSN12ModemManager22ModemLocationInterfaceE@Base 0.0~git20130816
 _ZTSN12ModemManager24ModemGsmNetworkInterfaceE@Base 0.0~git20130816
 _ZTSN12ModemManager25ModemGsmContactsInterfaceE@Base 0.0~git20130816
 _ZTSN12ModemManager8NotifierE@Base 0.0~git20130816
 _ZTSN15QtSharedPointer20ExternalRefCountDataE@Base 0.0~git20130816
 _ZTV21ModemInterfacePrivate@Base 0.0~git20130816
 _ZTV25ModemCdmaInterfacePrivate@Base 0.0~git20130816
 _ZTV27ModemGsmHsoInterfacePrivate@Base 0.0~git20130816
 _ZTV27ModemGsmSmsInterfacePrivate@Base 0.0~git20130816
 _ZTV28ModemGsmCardInterfacePrivate@Base 0.0~git20130816
 _ZTV28ModemGsmUssdInterfacePrivate@Base 0.0~git20130816
 _ZTV29ModemLocationInterfacePrivate@Base 0.0~git20130816
 _ZTV31ModemGsmNetworkInterfacePrivate@Base 0.0~git20130816
 _ZTV32ModemGsmContactsInterfacePrivate@Base 0.0~git20130816
 _ZTV35OrgFreedesktopModemManagerInterface@Base 0.0~git20130816
 _ZTV40OrgFreedesktopModemManagerModemInterface@Base 0.0~git20130816
 _ZTV44OrgFreedesktopModemManagerModemCdmaInterface@Base 0.0~git20130816
 _ZTV46OrgFreedesktopModemManagerModemGsmHsoInterface@Base 0.0~git20130816
 _ZTV46OrgFreedesktopModemManagerModemGsmSMSInterface@Base 0.0~git20130816
 _ZTV46OrgFreedesktopModemManagerModemSimpleInterface@Base 0.0~git20130816
 _ZTV47OrgFreedesktopModemManagerModemGsmCardInterface@Base 0.0~git20130816
 _ZTV47OrgFreedesktopModemManagerModemGsmUssdInterface@Base 0.0~git20130816
 _ZTV48OrgFreedesktopModemManagerModemLocationInterface@Base 0.0~git20130816
 _ZTV50OrgFreedesktopModemManagerModemGsmNetworkInterface@Base 0.0~git20130816
 _ZTV51OrgFreedesktopModemManagerModemGsmContactsInterface@Base 0.0~git20130816
 _ZTVN12ModemManager14ModemInterfaceE@Base 0.0~git20130816
 _ZTVN12ModemManager18ModemCdmaInterfaceE@Base 0.0~git20130816
 _ZTVN12ModemManager19ModemManagerPrivateE@Base 0.0~git20130816
 _ZTVN12ModemManager20ModemGsmHsoInterfaceE@Base 0.0~git20130816
 _ZTVN12ModemManager20ModemGsmSmsInterfaceE@Base 0.0~git20130816
 _ZTVN12ModemManager21ModemGsmCardInterfaceE@Base 0.0~git20130816
 _ZTVN12ModemManager21ModemGsmUssdInterfaceE@Base 0.0~git20130816
 _ZTVN12ModemManager22ModemLocationInterfaceE@Base 0.0~git20130816
 _ZTVN12ModemManager24ModemGsmNetworkInterfaceE@Base 0.0~git20130816
 _ZTVN12ModemManager25ModemGsmContactsInterfaceE@Base 0.0~git20130816
 _ZTVN12ModemManager8NotifierE@Base 0.0~git20130816
 _ZTVN15QtSharedPointer20ExternalRefCountDataE@Base 0.0~git20130816
 (optional=templinst)_ZZN11QMetaTypeIdI12QDBusVariantE14qt_metatype_idEvE11metatype_id@Base 0.5.0
 (optional=templinst)_ZZN11QMetaTypeIdI13QDBusArgumentE14qt_metatype_idEvE11metatype_id@Base 0.0~git20130816
 (optional=templinst)_ZZN11QMetaTypeIdI15QDBusObjectPathE14qt_metatype_idEvE11metatype_id@Base 0.0~git20130816
 (optional=templinst)_ZZN11QMetaTypeIdI5QListI15QDBusObjectPathEE14qt_metatype_idEvE11metatype_id@Base 0.0~git20130816
 (optional=templinst)_ZZN11QMetaTypeIdI5QListI4QMapI7QString8QVariantEEE14qt_metatype_idEvE11metatype_id@Base 0.0~git20130816
 (optional=templinst)_ZZN11QMetaTypeIdI5QListI4QMapI7QStringS2_EEE14qt_metatype_idEvE11metatype_id@Base 0.0~git20130816
 (optional=templinst)_ZZN11QMetaTypeIdI5QListI4QMapIN12ModemManager22ModemLocationInterface10CapabilityE8QVariantEEE14qt_metatype_idEvE11metatype_id@Base 0.0~git20130816
 (optional=templinst)_ZZN11QMetaTypeIdI5QListIN12ModemManager25ModemGsmContactsInterface11ContactTypeEEE14qt_metatype_idEvE11metatype_id@Base 0.0~git20130816
 (optional=templinst)_ZZN11QMetaTypeIdIN12ModemManager14ModemInterface13Ip4ConfigTypeEE14qt_metatype_idEvE11metatype_id@Base 0.0~git20130816
 (optional=templinst)_ZZN11QMetaTypeIdIN12ModemManager14ModemInterface8InfoTypeEE14qt_metatype_idEvE11metatype_id@Base 0.0~git20130816
 (optional=templinst)_ZZN11QMetaTypeIdIN12ModemManager18ModemCdmaInterface17ServingSystemTypeEE14qt_metatype_idEvE11metatype_id@Base 0.0~git20130816
 (optional=templinst)_ZZN11QMetaTypeIdIN12ModemManager18ModemCdmaInterface23RegistrationStateResultEE14qt_metatype_idEvE11metatype_id@Base 0.0~git20130816
 (optional=templinst)_ZZN11QMetaTypeIdIN12ModemManager24ModemGsmNetworkInterface20RegistrationInfoTypeEE14qt_metatype_idEvE11metatype_id@Base 0.5.0
 (optional=templinst)_ZZN11QMetaTypeIdIN12ModemManager25ModemGsmContactsInterface11ContactTypeEE14qt_metatype_idEvE11metatype_id@Base 0.0~git20130816
 _ZlsR13QDBusArgumentRK5QListI4QMapI7QString8QVariantEE@Base 0.5.0
 _ZlsR13QDBusArgumentRKN12ModemManager14ModemInterface13Ip4ConfigTypeE@Base 0.0~git20130816
 _ZlsR13QDBusArgumentRKN12ModemManager14ModemInterface8InfoTypeE@Base 0.0~git20130816
 _ZlsR13QDBusArgumentRKN12ModemManager18ModemCdmaInterface17ServingSystemTypeE@Base 0.0~git20130816
 _ZlsR13QDBusArgumentRKN12ModemManager24ModemGsmNetworkInterface20RegistrationInfoTypeE@Base 0.0~git20130816
 _ZlsR13QDBusArgumentRKN12ModemManager25ModemGsmContactsInterface11ContactTypeE@Base 0.0~git20130816
 _ZrsRK13QDBusArgumentR5QListI4QMapI7QString8QVariantEE@Base 0.5.0
 _ZrsRK13QDBusArgumentRN12ModemManager14ModemInterface13Ip4ConfigTypeE@Base 0.0~git20130816
 _ZrsRK13QDBusArgumentRN12ModemManager14ModemInterface8InfoTypeE@Base 0.0~git20130816
 _ZrsRK13QDBusArgumentRN12ModemManager18ModemCdmaInterface17ServingSystemTypeE@Base 0.0~git20130816
 _ZrsRK13QDBusArgumentRN12ModemManager24ModemGsmNetworkInterface20RegistrationInfoTypeE@Base 0.0~git20130816
 _ZrsRK13QDBusArgumentRN12ModemManager25ModemGsmContactsInterface11ContactTypeE@Base 0.0~git20130816
